

Microchip Technology PIC18 LITE Macro Assembler V1.41 build -162212810 
                                                                                               Fri Apr  7 23:08:22 2017

Microchip Technology Omniscient Code Generator v1.41 (Free mode) build 201701250102
     1  0000                     
     2                           ; Version 1.41
     3                           ; Generated 25/01/2017 GMT
     4                           
     5                           ; 
     6                           ; Copyright © 2017, Microchip Technology Inc. and its subsidiaries ("Microchip")
     7                           ; All rights reserved.
     8                           ; 
     9                           ; This software is developed by Microchip Technology Inc. and its subsidiaries ("Microch
                                 ip").
    10                           ; 
    11                           ; Redistribution and use in source and binary forms, with or without modification, are
    12                           ; permitted provided that the following conditions are met:
    13                           ; 
    14                           ;     1. Redistributions of source code must retain the above copyright notice, this lis
                                 t of
    15                           ;        conditions and the following disclaimer.
    16                           ; 
    17                           ;     2. Redistributions in binary form must reproduce the above copyright notice, this 
                                 list
    18                           ;        of conditions and the following disclaimer in the documentation and/or other
    19                           ;        materials provided with the distribution.
    20                           ; 
    21                           ;     3. Microchip's name may not be used to endorse or promote products derived from th
                                 is
    22                           ;        software without specific prior written permission.
    23                           ; 
    24                           ; THIS SOFTWARE IS PROVIDED BY MICROCHIP "AS IS" AND ANY EXPRESS OR IMPLIED WARRANTIES,

    25                           ; INCLUDING, BUT NOT LIMITED TO, THE IMPLIED WARRANTIES OF MERCHANTABILITY AND FITNESS F
                                 OR
    26                           ; PURPOSE ARE DISCLAIMED.  IN NO EVENT SHALL MICROCHIP BE LIABLE FOR ANY DIRECT, INDIREC
                                 T,
    27                           ; INCIDENTAL, SPECIAL, EXEMPLARY, OR CONSEQUENTIAL DAMAGES (INCLUDING BUT NOT LIMITED TO
                                 
    28                           ; PROCUREMENT OF SUBSTITUTE GOODS OR SERVICES; LOSS OF USE, DATA OR PROFITS; OR BUSINESS
                                 
    29                           ; INTERRUPTION) HOWSOEVER CAUSED AND ON ANY THEORY OF LIABILITY, WHETHER IN CONTRACT, ST
                                 RICT
    30                           ; LIABILITY, OR TORT (INCLUDING NEGLIGENCE OR OTHERWISE) ARISING IN ANY WAY OUT OF THE U
                                 SE OF
    31                           ; THIS SOFTWARE, EVEN IF ADVISED OF THE POSSIBILITY OF SUCH DAMAGE.
    32                           ; 
    33                           
    34                           
    35                           ; 
    36                           ; Code-generator required, PIC18F27J13 Definitions
    37                           ; 
    38  0000                     fsr0 equ 0FE9h
    39  0000                     fsr0h equ 0FEAh
    40  0000                     fsr0l equ 0FE9h
    41  0000                     fsr1 equ 0FE1h
    42  0000                     fsr1h equ 0FE2h
    43  0000                     fsr1l equ 0FE1h
    44  0000                     fsr2 equ 0FD9h
    45  0000                     fsr2h equ 0FDAh
    46  0000                     fsr2l equ 0FD9h
    47  0000                     indf0 equ 0FEFh
    48  0000                     indf1 equ 0FE7h
    49  0000                     indf2 equ 0FDFh
    50  0000                     intcon equ 0FF2h
    51  0000                     nvmcon equ 00h
    52  0000                     pcl equ 0FF9h
    53  0000                     pclath equ 0FFAh
    54  0000                     pclatu equ 0FFBh
    55  0000                     plusw0 equ 0FEBh
    56  0000                     plusw1 equ 0FE3h
    57  0000                     plusw2 equ 0FDBh
    58  0000                     postdec0 equ 0FEDh
    59  0000                     postdec1 equ 0FE5h
    60  0000                     postdec2 equ 0FDDh
    61  0000                     postinc0 equ 0FEEh
    62  0000                     postinc1 equ 0FE6h
    63  0000                     postinc2 equ 0FDEh
    64  0000                     preinc0 equ 0FECh
    65  0000                     preinc1 equ 0FE4h
    66  0000                     preinc2 equ 0FDCh
    67  0000                     prod equ 0FF3h
    68  0000                     prodh equ 0FF4h
    69  0000                     prodl equ 0FF3h
    70  0000                     status equ 0FD8h
    71  0000                     tablat equ 0FF5h
    72  0000                     tblptr equ 0FF6h
    73  0000                     tblptrh equ 0FF7h
    74  0000                     tblptrl equ 0FF6h
    75  0000                     tblptru equ 0FF8h
    76  0000                     tosl equ 0FFDh
    77  0000                     wreg equ 0FE8h
    78  0000                     
     2                           opt pagewidth 120
     3  0000                     setc   macro
     4                           	bsf	status,0
     5                           endm
     6  0000                     clrz   macro
     7                           	bcf	status,2
     8                           endm
     9  0000                     setz   macro
    10                           	bsf	status,2
    11                           endm
    12  0000                     skipnz macro
    13                           	btfsc	status,2
    14                           endm
    15  0000                     skipz  macro
    16                           	btfss	status,2
    17                           endm
    18  0000                     skipnc macro
    19                           	btfsc	status,0
    20                           endm
    21  0000                     skipc  macro
    22                           	btfss	status,0
    23                           endm
    24  0000                     pushw macro
    25                           	movwf postinc1
    26                           endm
    27  0000                     pushf macro arg1
    28                           	movff arg1, postinc1
    29                           endm
    30  0000                     popw macro
    31                           	movf postdec1,f
    32                           	movf indf1,w
    33                           endm
    34  0000                     popf macro arg1
    35                           	movf postdec1,f
    36                           	movff indf1,arg1
    37                           endm
    38  0000                     popfc macro arg1
    39                           	movff plusw1,arg1
    40                           	decfsz fsr1,f
    41                           endm
    42  0000                     	global	__ramtop
    43                           	global	__accesstop
    44                           # 51 "/opt/microchip/xc8/v1.41/include/pic18f27j13.h"
    45                           ADCTRIG equ 0EB8h ;# 
    46  0000                     # 106 "/opt/microchip/xc8/v1.41/include/pic18f27j13.h"
    47                           PMDIS0 equ 0EB9h ;# 
    48  0000                     # 111 "/opt/microchip/xc8/v1.41/include/pic18f27j13.h"
    49                           PD0 equ 0EB9h ;# 
    50  0000                     # 411 "/opt/microchip/xc8/v1.41/include/pic18f27j13.h"
    51                           PMDIS1 equ 0EBAh ;# 
    52  0000                     # 416 "/opt/microchip/xc8/v1.41/include/pic18f27j13.h"
    53                           PD1 equ 0EBAh ;# 
    54  0000                     # 624 "/opt/microchip/xc8/v1.41/include/pic18f27j13.h"
    55                           PMDIS2 equ 0EBBh ;# 
    56  0000                     # 629 "/opt/microchip/xc8/v1.41/include/pic18f27j13.h"
    57                           PD2 equ 0EBBh ;# 
    58  0000                     # 833 "/opt/microchip/xc8/v1.41/include/pic18f27j13.h"
    59                           PMDIS3 equ 0EBCh ;# 
    60  0000                     # 838 "/opt/microchip/xc8/v1.41/include/pic18f27j13.h"
    61                           PD3 equ 0EBCh ;# 
    62  0000                     # 1070 "/opt/microchip/xc8/v1.41/include/pic18f27j13.h"
    63                           PPSCON equ 0EBFh ;# 
    64  0000                     # 1089 "/opt/microchip/xc8/v1.41/include/pic18f27j13.h"
    65                           RPOR0 equ 0EC0h ;# 
    66  0000                     # 1095 "/opt/microchip/xc8/v1.41/include/pic18f27j13.h"
    67                           RPOR1 equ 0EC1h ;# 
    68  0000                     # 1101 "/opt/microchip/xc8/v1.41/include/pic18f27j13.h"
    69                           RPOR2 equ 0EC2h ;# 
    70  0000                     # 1107 "/opt/microchip/xc8/v1.41/include/pic18f27j13.h"
    71                           RPOR3 equ 0EC3h ;# 
    72  0000                     # 1113 "/opt/microchip/xc8/v1.41/include/pic18f27j13.h"
    73                           RPOR4 equ 0EC4h ;# 
    74  0000                     # 1119 "/opt/microchip/xc8/v1.41/include/pic18f27j13.h"
    75                           RPOR5 equ 0EC5h ;# 
    76  0000                     # 1125 "/opt/microchip/xc8/v1.41/include/pic18f27j13.h"
    77                           RPOR6 equ 0EC6h ;# 
    78  0000                     # 1131 "/opt/microchip/xc8/v1.41/include/pic18f27j13.h"
    79                           RPOR7 equ 0EC7h ;# 
    80  0000                     # 1137 "/opt/microchip/xc8/v1.41/include/pic18f27j13.h"
    81                           RPOR8 equ 0EC8h ;# 
    82  0000                     # 1143 "/opt/microchip/xc8/v1.41/include/pic18f27j13.h"
    83                           RPOR9 equ 0EC9h ;# 
    84  0000                     # 1149 "/opt/microchip/xc8/v1.41/include/pic18f27j13.h"
    85                           RPOR10 equ 0ECAh ;# 
    86  0000                     # 1155 "/opt/microchip/xc8/v1.41/include/pic18f27j13.h"
    87                           RPOR11 equ 0ECBh ;# 
    88  0000                     # 1161 "/opt/microchip/xc8/v1.41/include/pic18f27j13.h"
    89                           RPOR12 equ 0ECCh ;# 
    90  0000                     # 1167 "/opt/microchip/xc8/v1.41/include/pic18f27j13.h"
    91                           RPOR13 equ 0ECDh ;# 
    92  0000                     # 1173 "/opt/microchip/xc8/v1.41/include/pic18f27j13.h"
    93                           RPOR14 equ 0ECEh ;# 
    94  0000                     # 1179 "/opt/microchip/xc8/v1.41/include/pic18f27j13.h"
    95                           RPOR15 equ 0ECFh ;# 
    96  0000                     # 1185 "/opt/microchip/xc8/v1.41/include/pic18f27j13.h"
    97                           RPOR16 equ 0ED0h ;# 
    98  0000                     # 1191 "/opt/microchip/xc8/v1.41/include/pic18f27j13.h"
    99                           RPOR17 equ 0ED1h ;# 
   100  0000                     # 1197 "/opt/microchip/xc8/v1.41/include/pic18f27j13.h"
   101                           RPOR18 equ 0ED2h ;# 
   102  0000                     # 1203 "/opt/microchip/xc8/v1.41/include/pic18f27j13.h"
   103                           RPINR1 equ 0EE1h ;# 
   104  0000                     # 1209 "/opt/microchip/xc8/v1.41/include/pic18f27j13.h"
   105                           RPINR2 equ 0EE2h ;# 
   106  0000                     # 1215 "/opt/microchip/xc8/v1.41/include/pic18f27j13.h"
   107                           RPINR3 equ 0EE3h ;# 
   108  0000                     # 1221 "/opt/microchip/xc8/v1.41/include/pic18f27j13.h"
   109                           RPINR4 equ 0EE4h ;# 
   110  0000                     # 1227 "/opt/microchip/xc8/v1.41/include/pic18f27j13.h"
   111                           RPINR6 equ 0EE6h ;# 
   112  0000                     # 1233 "/opt/microchip/xc8/v1.41/include/pic18f27j13.h"
   113                           RPINR15 equ 0EE7h ;# 
   114  0000                     # 1239 "/opt/microchip/xc8/v1.41/include/pic18f27j13.h"
   115                           RPINR7 equ 0EE8h ;# 
   116  0000                     # 1245 "/opt/microchip/xc8/v1.41/include/pic18f27j13.h"
   117                           RPINR8 equ 0EE9h ;# 
   118  0000                     # 1251 "/opt/microchip/xc8/v1.41/include/pic18f27j13.h"
   119                           RPINR9 equ 0EEAh ;# 
   120  0000                     # 1257 "/opt/microchip/xc8/v1.41/include/pic18f27j13.h"
   121                           RPINR12 equ 0EF2h ;# 
   122  0000                     # 1263 "/opt/microchip/xc8/v1.41/include/pic18f27j13.h"
   123                           RPINR13 equ 0EF3h ;# 
   124  0000                     # 1269 "/opt/microchip/xc8/v1.41/include/pic18f27j13.h"
   125                           RPINR14 equ 0EF4h ;# 
   126  0000                     # 1275 "/opt/microchip/xc8/v1.41/include/pic18f27j13.h"
   127                           RPINR16 equ 0EF7h ;# 
   128  0000                     # 1281 "/opt/microchip/xc8/v1.41/include/pic18f27j13.h"
   129                           RPINR17 equ 0EF8h ;# 
   130  0000                     # 1287 "/opt/microchip/xc8/v1.41/include/pic18f27j13.h"
   131                           RPINR21 equ 0EFCh ;# 
   132  0000                     # 1293 "/opt/microchip/xc8/v1.41/include/pic18f27j13.h"
   133                           RPINR22 equ 0EFDh ;# 
   134  0000                     # 1299 "/opt/microchip/xc8/v1.41/include/pic18f27j13.h"
   135                           RPINR23 equ 0EFEh ;# 
   136  0000                     # 1305 "/opt/microchip/xc8/v1.41/include/pic18f27j13.h"
   137                           RPINR24 equ 0EFFh ;# 
   138  0000                     # 1311 "/opt/microchip/xc8/v1.41/include/pic18f27j13.h"
   139                           CCP10CON equ 0F00h ;# 
   140  0000                     # 1374 "/opt/microchip/xc8/v1.41/include/pic18f27j13.h"
   141                           CCPR10L equ 0F01h ;# 
   142  0000                     # 1393 "/opt/microchip/xc8/v1.41/include/pic18f27j13.h"
   143                           CCPR10H equ 0F02h ;# 
   144  0000                     # 1412 "/opt/microchip/xc8/v1.41/include/pic18f27j13.h"
   145                           CCP9CON equ 0F03h ;# 
   146  0000                     # 1475 "/opt/microchip/xc8/v1.41/include/pic18f27j13.h"
   147                           CCPR9L equ 0F04h ;# 
   148  0000                     # 1494 "/opt/microchip/xc8/v1.41/include/pic18f27j13.h"
   149                           CCPR9H equ 0F05h ;# 
   150  0000                     # 1513 "/opt/microchip/xc8/v1.41/include/pic18f27j13.h"
   151                           CCP8CON equ 0F06h ;# 
   152  0000                     # 1576 "/opt/microchip/xc8/v1.41/include/pic18f27j13.h"
   153                           CCPR8L equ 0F07h ;# 
   154  0000                     # 1595 "/opt/microchip/xc8/v1.41/include/pic18f27j13.h"
   155                           CCPR8H equ 0F08h ;# 
   156  0000                     # 1614 "/opt/microchip/xc8/v1.41/include/pic18f27j13.h"
   157                           CCP7CON equ 0F09h ;# 
   158  0000                     # 1677 "/opt/microchip/xc8/v1.41/include/pic18f27j13.h"
   159                           CCPR7L equ 0F0Ah ;# 
   160  0000                     # 1696 "/opt/microchip/xc8/v1.41/include/pic18f27j13.h"
   161                           CCPR7H equ 0F0Bh ;# 
   162  0000                     # 1715 "/opt/microchip/xc8/v1.41/include/pic18f27j13.h"
   163                           CCP6CON equ 0F0Ch ;# 
   164  0000                     # 1778 "/opt/microchip/xc8/v1.41/include/pic18f27j13.h"
   165                           CCPR6L equ 0F0Dh ;# 
   166  0000                     # 1797 "/opt/microchip/xc8/v1.41/include/pic18f27j13.h"
   167                           CCPR6H equ 0F0Eh ;# 
   168  0000                     # 1816 "/opt/microchip/xc8/v1.41/include/pic18f27j13.h"
   169                           CCP5CON equ 0F0Fh ;# 
   170  0000                     # 1879 "/opt/microchip/xc8/v1.41/include/pic18f27j13.h"
   171                           CCPR5L equ 0F10h ;# 
   172  0000                     # 1898 "/opt/microchip/xc8/v1.41/include/pic18f27j13.h"
   173                           CCPR5H equ 0F11h ;# 
   174  0000                     # 1917 "/opt/microchip/xc8/v1.41/include/pic18f27j13.h"
   175                           CCP4CON equ 0F12h ;# 
   176  0000                     # 1980 "/opt/microchip/xc8/v1.41/include/pic18f27j13.h"
   177                           CCPR4L equ 0F13h ;# 
   178  0000                     # 1999 "/opt/microchip/xc8/v1.41/include/pic18f27j13.h"
   179                           CCPR4H equ 0F14h ;# 
   180  0000                     # 2018 "/opt/microchip/xc8/v1.41/include/pic18f27j13.h"
   181                           CCP3CON equ 0F15h ;# 
   182  0000                     # 2099 "/opt/microchip/xc8/v1.41/include/pic18f27j13.h"
   183                           CCPR3L equ 0F16h ;# 
   184  0000                     # 2118 "/opt/microchip/xc8/v1.41/include/pic18f27j13.h"
   185                           CCPR3H equ 0F17h ;# 
   186  0000                     # 2137 "/opt/microchip/xc8/v1.41/include/pic18f27j13.h"
   187                           ECCP3DEL equ 0F18h ;# 
   188  0000                     # 2206 "/opt/microchip/xc8/v1.41/include/pic18f27j13.h"
   189                           ECCP3AS equ 0F19h ;# 
   190  0000                     # 2287 "/opt/microchip/xc8/v1.41/include/pic18f27j13.h"
   191                           PSTR3CON equ 0F1Ah ;# 
   192  0000                     # 2397 "/opt/microchip/xc8/v1.41/include/pic18f27j13.h"
   193                           T8CON equ 0F1Bh ;# 
   194  0000                     # 2467 "/opt/microchip/xc8/v1.41/include/pic18f27j13.h"
   195                           PR8 equ 0F1Ch ;# 
   196  0000                     # 2486 "/opt/microchip/xc8/v1.41/include/pic18f27j13.h"
   197                           TMR8 equ 0F1Dh ;# 
   198  0000                     # 2505 "/opt/microchip/xc8/v1.41/include/pic18f27j13.h"
   199                           T6CON equ 0F1Eh ;# 
   200  0000                     # 2575 "/opt/microchip/xc8/v1.41/include/pic18f27j13.h"
   201                           PR6 equ 0F1Fh ;# 
   202  0000                     # 2594 "/opt/microchip/xc8/v1.41/include/pic18f27j13.h"
   203                           TMR6 equ 0F20h ;# 
   204  0000                     # 2613 "/opt/microchip/xc8/v1.41/include/pic18f27j13.h"
   205                           T5GCON equ 0F21h ;# 
   206  0000                     # 2725 "/opt/microchip/xc8/v1.41/include/pic18f27j13.h"
   207                           T5CON equ 0F22h ;# 
   208  0000                     # 2826 "/opt/microchip/xc8/v1.41/include/pic18f27j13.h"
   209                           TMR5L equ 0F23h ;# 
   210  0000                     # 2845 "/opt/microchip/xc8/v1.41/include/pic18f27j13.h"
   211                           TMR5H equ 0F24h ;# 
   212  0000                     # 2864 "/opt/microchip/xc8/v1.41/include/pic18f27j13.h"
   213                           CM3CON equ 0F25h ;# 
   214  0000                     # 2990 "/opt/microchip/xc8/v1.41/include/pic18f27j13.h"
   215                           RTCVALL equ 0F3Ah ;# 
   216  0000                     # 3009 "/opt/microchip/xc8/v1.41/include/pic18f27j13.h"
   217                           RTCVALH equ 0F3Bh ;# 
   218  0000                     # 3078 "/opt/microchip/xc8/v1.41/include/pic18f27j13.h"
   219                           PADCFG1 equ 0F3Ch ;# 
   220  0000                     # 3104 "/opt/microchip/xc8/v1.41/include/pic18f27j13.h"
   221                           REFOCON equ 0F3Dh ;# 
   222  0000                     # 3168 "/opt/microchip/xc8/v1.41/include/pic18f27j13.h"
   223                           RTCCAL equ 0F3Eh ;# 
   224  0000                     # 3237 "/opt/microchip/xc8/v1.41/include/pic18f27j13.h"
   225                           RTCCFG equ 0F3Fh ;# 
   226  0000                     # 3293 "/opt/microchip/xc8/v1.41/include/pic18f27j13.h"
   227                           ODCON3 equ 0F40h ;# 
   228  0000                     # 3325 "/opt/microchip/xc8/v1.41/include/pic18f27j13.h"
   229                           ODCON2 equ 0F41h ;# 
   230  0000                     # 3362 "/opt/microchip/xc8/v1.41/include/pic18f27j13.h"
   231                           ODCON1 equ 0F42h ;# 
   232  0000                     # 3423 "/opt/microchip/xc8/v1.41/include/pic18f27j13.h"
   233                           ALRMVALL equ 0F44h ;# 
   234  0000                     # 3442 "/opt/microchip/xc8/v1.41/include/pic18f27j13.h"
   235                           ALRMVALH equ 0F45h ;# 
   236  0000                     # 3461 "/opt/microchip/xc8/v1.41/include/pic18f27j13.h"
   237                           ALRMRPT equ 0F46h ;# 
   238  0000                     # 3530 "/opt/microchip/xc8/v1.41/include/pic18f27j13.h"
   239                           ALRMCFG equ 0F47h ;# 
   240  0000                     # 3605 "/opt/microchip/xc8/v1.41/include/pic18f27j13.h"
   241                           ANCON0 equ 0F48h ;# 
   242  0000                     # 3648 "/opt/microchip/xc8/v1.41/include/pic18f27j13.h"
   243                           ANCON1 equ 0F49h ;# 
   244  0000                     # 3707 "/opt/microchip/xc8/v1.41/include/pic18f27j13.h"
   245                           DSWAKEL equ 0F4Ah ;# 
   246  0000                     # 3758 "/opt/microchip/xc8/v1.41/include/pic18f27j13.h"
   247                           DSWAKEH equ 0F4Bh ;# 
   248  0000                     # 3777 "/opt/microchip/xc8/v1.41/include/pic18f27j13.h"
   249                           DSCONL equ 0F4Ch ;# 
   250  0000                     # 3808 "/opt/microchip/xc8/v1.41/include/pic18f27j13.h"
   251                           DSCONH equ 0F4Dh ;# 
   252  0000                     # 3840 "/opt/microchip/xc8/v1.41/include/pic18f27j13.h"
   253                           DSGPR0 equ 0F4Eh ;# 
   254  0000                     # 3859 "/opt/microchip/xc8/v1.41/include/pic18f27j13.h"
   255                           DSGPR1 equ 0F4Fh ;# 
   256  0000                     # 3878 "/opt/microchip/xc8/v1.41/include/pic18f27j13.h"
   257                           CCPTMRS2 equ 0F50h ;# 
   258  0000                     # 3924 "/opt/microchip/xc8/v1.41/include/pic18f27j13.h"
   259                           CCPTMRS1 equ 0F51h ;# 
   260  0000                     # 3990 "/opt/microchip/xc8/v1.41/include/pic18f27j13.h"
   261                           CCPTMRS0 equ 0F52h ;# 
   262  0000                     # 4071 "/opt/microchip/xc8/v1.41/include/pic18f27j13.h"
   263                           CVRCON equ 0F53h ;# 
   264  0000                     # 4149 "/opt/microchip/xc8/v1.41/include/pic18f27j13.h"
   265                           DMABCH equ 0F66h ;# 
   266  0000                     # 4168 "/opt/microchip/xc8/v1.41/include/pic18f27j13.h"
   267                           DMABCL equ 0F67h ;# 
   268  0000                     # 4187 "/opt/microchip/xc8/v1.41/include/pic18f27j13.h"
   269                           RXADDRH equ 0F68h ;# 
   270  0000                     # 4206 "/opt/microchip/xc8/v1.41/include/pic18f27j13.h"
   271                           RXADDRL equ 0F69h ;# 
   272  0000                     # 4225 "/opt/microchip/xc8/v1.41/include/pic18f27j13.h"
   273                           TXADDRH equ 0F6Ah ;# 
   274  0000                     # 4244 "/opt/microchip/xc8/v1.41/include/pic18f27j13.h"
   275                           TXADDRL equ 0F6Bh ;# 
   276  0000                     # 4263 "/opt/microchip/xc8/v1.41/include/pic18f27j13.h"
   277                           CMSTAT equ 0F70h ;# 
   278  0000                     # 4268 "/opt/microchip/xc8/v1.41/include/pic18f27j13.h"
   279                           CMSTATUS equ 0F70h ;# 
   280  0000                     # 4324 "/opt/microchip/xc8/v1.41/include/pic18f27j13.h"
   281                           SSP2CON2 equ 0F71h ;# 
   282  0000                     # 4501 "/opt/microchip/xc8/v1.41/include/pic18f27j13.h"
   283                           SSP2CON1 equ 0F72h ;# 
   284  0000                     # 4620 "/opt/microchip/xc8/v1.41/include/pic18f27j13.h"
   285                           SSP2STAT equ 0F73h ;# 
   286  0000                     # 4921 "/opt/microchip/xc8/v1.41/include/pic18f27j13.h"
   287                           SSP2ADD equ 0F74h ;# 
   288  0000                     # 4990 "/opt/microchip/xc8/v1.41/include/pic18f27j13.h"
   289                           SSP2MSK equ 0F74h ;# 
   290  0000                     # 5051 "/opt/microchip/xc8/v1.41/include/pic18f27j13.h"
   291                           SSP2BUF equ 0F75h ;# 
   292  0000                     # 5070 "/opt/microchip/xc8/v1.41/include/pic18f27j13.h"
   293                           T4CON equ 0F76h ;# 
   294  0000                     # 5140 "/opt/microchip/xc8/v1.41/include/pic18f27j13.h"
   295                           PR4 equ 0F77h ;# 
   296  0000                     # 5159 "/opt/microchip/xc8/v1.41/include/pic18f27j13.h"
   297                           TMR4 equ 0F78h ;# 
   298  0000                     # 5178 "/opt/microchip/xc8/v1.41/include/pic18f27j13.h"
   299                           T3CON equ 0F79h ;# 
   300  0000                     # 5288 "/opt/microchip/xc8/v1.41/include/pic18f27j13.h"
   301                           TMR3 equ 0F7Ah ;# 
   302  0000                     # 5294 "/opt/microchip/xc8/v1.41/include/pic18f27j13.h"
   303                           TMR3L equ 0F7Ah ;# 
   304  0000                     # 5313 "/opt/microchip/xc8/v1.41/include/pic18f27j13.h"
   305                           TMR3H equ 0F7Bh ;# 
   306  0000                     # 5332 "/opt/microchip/xc8/v1.41/include/pic18f27j13.h"
   307                           BAUDCON2 equ 0F7Ch ;# 
   308  0000                     # 5454 "/opt/microchip/xc8/v1.41/include/pic18f27j13.h"
   309                           SPBRGH2 equ 0F7Dh ;# 
   310  0000                     # 5473 "/opt/microchip/xc8/v1.41/include/pic18f27j13.h"
   311                           BAUDCON1 equ 0F7Eh ;# 
   312  0000                     # 5478 "/opt/microchip/xc8/v1.41/include/pic18f27j13.h"
   313                           BAUDCON equ 0F7Eh ;# 
   314  0000                     # 5482 "/opt/microchip/xc8/v1.41/include/pic18f27j13.h"
   315                           BAUDCTL equ 0F7Eh ;# 
   316  0000                     # 5979 "/opt/microchip/xc8/v1.41/include/pic18f27j13.h"
   317                           SPBRGH1 equ 0F7Fh ;# 
   318  0000                     # 5984 "/opt/microchip/xc8/v1.41/include/pic18f27j13.h"
   319                           SPBRGH equ 0F7Fh ;# 
   320  0000                     # 6016 "/opt/microchip/xc8/v1.41/include/pic18f27j13.h"
   321                           PORTA equ 0F80h ;# 
   322  0000                     # 6278 "/opt/microchip/xc8/v1.41/include/pic18f27j13.h"
   323                           PORTB equ 0F81h ;# 
   324  0000                     # 6564 "/opt/microchip/xc8/v1.41/include/pic18f27j13.h"
   325                           PORTC equ 0F82h ;# 
   326  0000                     # 6819 "/opt/microchip/xc8/v1.41/include/pic18f27j13.h"
   327                           HLVDCON equ 0F85h ;# 
   328  0000                     # 6888 "/opt/microchip/xc8/v1.41/include/pic18f27j13.h"
   329                           DMACON2 equ 0F86h ;# 
   330  0000                     # 6963 "/opt/microchip/xc8/v1.41/include/pic18f27j13.h"
   331                           OSCCON2 equ 0F87h ;# 
   332  0000                     # 7002 "/opt/microchip/xc8/v1.41/include/pic18f27j13.h"
   333                           DMACON1 equ 0F88h ;# 
   334  0000                     # 7063 "/opt/microchip/xc8/v1.41/include/pic18f27j13.h"
   335                           LATA equ 0F89h ;# 
   336  0000                     # 7164 "/opt/microchip/xc8/v1.41/include/pic18f27j13.h"
   337                           LATB equ 0F8Ah ;# 
   338  0000                     # 7275 "/opt/microchip/xc8/v1.41/include/pic18f27j13.h"
   339                           LATC equ 0F8Bh ;# 
   340  0000                     # 7386 "/opt/microchip/xc8/v1.41/include/pic18f27j13.h"
   341                           PIE4 equ 0F8Eh ;# 
   342  0000                     # 7447 "/opt/microchip/xc8/v1.41/include/pic18f27j13.h"
   343                           PIR4 equ 0F8Fh ;# 
   344  0000                     # 7508 "/opt/microchip/xc8/v1.41/include/pic18f27j13.h"
   345                           IPR4 equ 0F90h ;# 
   346  0000                     # 7577 "/opt/microchip/xc8/v1.41/include/pic18f27j13.h"
   347                           PIE5 equ 0F91h ;# 
   348  0000                     # 7626 "/opt/microchip/xc8/v1.41/include/pic18f27j13.h"
   349                           TRISA equ 0F92h ;# 
   350  0000                     # 7682 "/opt/microchip/xc8/v1.41/include/pic18f27j13.h"
   351                           TRISB equ 0F93h ;# 
   352  0000                     # 7743 "/opt/microchip/xc8/v1.41/include/pic18f27j13.h"
   353                           TRISC equ 0F94h ;# 
   354  0000                     # 7804 "/opt/microchip/xc8/v1.41/include/pic18f27j13.h"
   355                           T3GCON equ 0F97h ;# 
   356  0000                     # 7883 "/opt/microchip/xc8/v1.41/include/pic18f27j13.h"
   357                           PIR5 equ 0F98h ;# 
   358  0000                     # 7932 "/opt/microchip/xc8/v1.41/include/pic18f27j13.h"
   359                           IPR5 equ 0F99h ;# 
   360  0000                     # 8008 "/opt/microchip/xc8/v1.41/include/pic18f27j13.h"
   361                           T1GCON equ 0F9Ah ;# 
   362  0000                     # 8114 "/opt/microchip/xc8/v1.41/include/pic18f27j13.h"
   363                           OSCTUNE equ 0F9Bh ;# 
   364  0000                     # 8183 "/opt/microchip/xc8/v1.41/include/pic18f27j13.h"
   365                           RCSTA2 equ 0F9Ch ;# 
   366  0000                     # 8318 "/opt/microchip/xc8/v1.41/include/pic18f27j13.h"
   367                           PIE1 equ 0F9Dh ;# 
   368  0000                     # 8394 "/opt/microchip/xc8/v1.41/include/pic18f27j13.h"
   369                           PIR1 equ 0F9Eh ;# 
   370  0000                     # 8470 "/opt/microchip/xc8/v1.41/include/pic18f27j13.h"
   371                           IPR1 equ 0F9Fh ;# 
   372  0000                     # 8546 "/opt/microchip/xc8/v1.41/include/pic18f27j13.h"
   373                           PIE2 equ 0FA0h ;# 
   374  0000                     # 8626 "/opt/microchip/xc8/v1.41/include/pic18f27j13.h"
   375                           PIR2 equ 0FA1h ;# 
   376  0000                     # 8706 "/opt/microchip/xc8/v1.41/include/pic18f27j13.h"
   377                           IPR2 equ 0FA2h ;# 
   378  0000                     # 8786 "/opt/microchip/xc8/v1.41/include/pic18f27j13.h"
   379                           PIE3 equ 0FA3h ;# 
   380  0000                     # 8895 "/opt/microchip/xc8/v1.41/include/pic18f27j13.h"
   381                           PIR3 equ 0FA4h ;# 
   382  0000                     # 8972 "/opt/microchip/xc8/v1.41/include/pic18f27j13.h"
   383                           IPR3 equ 0FA5h ;# 
   384  0000                     # 9049 "/opt/microchip/xc8/v1.41/include/pic18f27j13.h"
   385                           EECON1 equ 0FA6h ;# 
   386  0000                     # 9093 "/opt/microchip/xc8/v1.41/include/pic18f27j13.h"
   387                           EECON2 equ 0FA7h ;# 
   388  0000                     # 9112 "/opt/microchip/xc8/v1.41/include/pic18f27j13.h"
   389                           TXSTA2 equ 0FA8h ;# 
   390  0000                     # 9238 "/opt/microchip/xc8/v1.41/include/pic18f27j13.h"
   391                           TXREG2 equ 0FA9h ;# 
   392  0000                     # 9257 "/opt/microchip/xc8/v1.41/include/pic18f27j13.h"
   393                           RCREG2 equ 0FAAh ;# 
   394  0000                     # 9276 "/opt/microchip/xc8/v1.41/include/pic18f27j13.h"
   395                           SPBRG2 equ 0FABh ;# 
   396  0000                     # 9295 "/opt/microchip/xc8/v1.41/include/pic18f27j13.h"
   397                           RCSTA1 equ 0FACh ;# 
   398  0000                     # 9300 "/opt/microchip/xc8/v1.41/include/pic18f27j13.h"
   399                           RCSTA equ 0FACh ;# 
   400  0000                     # 9632 "/opt/microchip/xc8/v1.41/include/pic18f27j13.h"
   401                           TXSTA1 equ 0FADh ;# 
   402  0000                     # 9637 "/opt/microchip/xc8/v1.41/include/pic18f27j13.h"
   403                           TXSTA equ 0FADh ;# 
   404  0000                     # 9919 "/opt/microchip/xc8/v1.41/include/pic18f27j13.h"
   405                           TXREG1 equ 0FAEh ;# 
   406  0000                     # 9924 "/opt/microchip/xc8/v1.41/include/pic18f27j13.h"
   407                           TXREG equ 0FAEh ;# 
   408  0000                     # 9956 "/opt/microchip/xc8/v1.41/include/pic18f27j13.h"
   409                           RCREG1 equ 0FAFh ;# 
   410  0000                     # 9961 "/opt/microchip/xc8/v1.41/include/pic18f27j13.h"
   411                           RCREG equ 0FAFh ;# 
   412  0000                     # 9993 "/opt/microchip/xc8/v1.41/include/pic18f27j13.h"
   413                           SPBRG1 equ 0FB0h ;# 
   414  0000                     # 9998 "/opt/microchip/xc8/v1.41/include/pic18f27j13.h"
   415                           SPBRG equ 0FB0h ;# 
   416  0000                     # 10030 "/opt/microchip/xc8/v1.41/include/pic18f27j13.h"
   417                           CTMUICON equ 0FB1h ;# 
   418  0000                     # 10105 "/opt/microchip/xc8/v1.41/include/pic18f27j13.h"
   419                           CTMUCONL equ 0FB2h ;# 
   420  0000                     # 10166 "/opt/microchip/xc8/v1.41/include/pic18f27j13.h"
   421                           CTMUCONH equ 0FB3h ;# 
   422  0000                     # 10222 "/opt/microchip/xc8/v1.41/include/pic18f27j13.h"
   423                           CCP2CON equ 0FB4h ;# 
   424  0000                     # 10227 "/opt/microchip/xc8/v1.41/include/pic18f27j13.h"
   425                           ECCP2CON equ 0FB4h ;# 
   426  0000                     # 10413 "/opt/microchip/xc8/v1.41/include/pic18f27j13.h"
   427                           CCPR2 equ 0FB5h ;# 
   428  0000                     # 10419 "/opt/microchip/xc8/v1.41/include/pic18f27j13.h"
   429                           CCPR2L equ 0FB5h ;# 
   430  0000                     # 10438 "/opt/microchip/xc8/v1.41/include/pic18f27j13.h"
   431                           CCPR2H equ 0FB6h ;# 
   432  0000                     # 10457 "/opt/microchip/xc8/v1.41/include/pic18f27j13.h"
   433                           ECCP2DEL equ 0FB7h ;# 
   434  0000                     # 10462 "/opt/microchip/xc8/v1.41/include/pic18f27j13.h"
   435                           PWM2CON equ 0FB7h ;# 
   436  0000                     # 10594 "/opt/microchip/xc8/v1.41/include/pic18f27j13.h"
   437                           ECCP2AS equ 0FB8h ;# 
   438  0000                     # 10675 "/opt/microchip/xc8/v1.41/include/pic18f27j13.h"
   439                           PSTR2CON equ 0FB9h ;# 
   440  0000                     # 10916 "/opt/microchip/xc8/v1.41/include/pic18f27j13.h"
   441                           CCP1CON equ 0FBAh ;# 
   442  0000                     # 10921 "/opt/microchip/xc8/v1.41/include/pic18f27j13.h"
   443                           ECCP1CON equ 0FBAh ;# 
   444  0000                     # 11107 "/opt/microchip/xc8/v1.41/include/pic18f27j13.h"
   445                           CCPR1 equ 0FBBh ;# 
   446  0000                     # 11113 "/opt/microchip/xc8/v1.41/include/pic18f27j13.h"
   447                           CCPR1L equ 0FBBh ;# 
   448  0000                     # 11132 "/opt/microchip/xc8/v1.41/include/pic18f27j13.h"
   449                           CCPR1H equ 0FBCh ;# 
   450  0000                     # 11151 "/opt/microchip/xc8/v1.41/include/pic18f27j13.h"
   451                           ECCP1DEL equ 0FBDh ;# 
   452  0000                     # 11156 "/opt/microchip/xc8/v1.41/include/pic18f27j13.h"
   453                           PWM1CON equ 0FBDh ;# 
   454  0000                     # 11288 "/opt/microchip/xc8/v1.41/include/pic18f27j13.h"
   455                           ECCP1AS equ 0FBEh ;# 
   456  0000                     # 11369 "/opt/microchip/xc8/v1.41/include/pic18f27j13.h"
   457                           PSTR1CON equ 0FBFh ;# 
   458  0000                     # 11425 "/opt/microchip/xc8/v1.41/include/pic18f27j13.h"
   459                           WDTCON equ 0FC0h ;# 
   460  0000                     # 11494 "/opt/microchip/xc8/v1.41/include/pic18f27j13.h"
   461                           ADCON1 equ 0FC1h ;# 
   462  0000                     # 11590 "/opt/microchip/xc8/v1.41/include/pic18f27j13.h"
   463                           ADCON0 equ 0FC2h ;# 
   464  0000                     # 11733 "/opt/microchip/xc8/v1.41/include/pic18f27j13.h"
   465                           ADRES equ 0FC3h ;# 
   466  0000                     # 11739 "/opt/microchip/xc8/v1.41/include/pic18f27j13.h"
   467                           ADRESL equ 0FC3h ;# 
   468  0000                     # 11758 "/opt/microchip/xc8/v1.41/include/pic18f27j13.h"
   469                           ADRESH equ 0FC4h ;# 
   470  0000                     # 11777 "/opt/microchip/xc8/v1.41/include/pic18f27j13.h"
   471                           SSP1CON2 equ 0FC5h ;# 
   472  0000                     # 11782 "/opt/microchip/xc8/v1.41/include/pic18f27j13.h"
   473                           SSPCON2 equ 0FC5h ;# 
   474  0000                     # 12130 "/opt/microchip/xc8/v1.41/include/pic18f27j13.h"
   475                           SSP1CON1 equ 0FC6h ;# 
   476  0000                     # 12135 "/opt/microchip/xc8/v1.41/include/pic18f27j13.h"
   477                           SSPCON1 equ 0FC6h ;# 
   478  0000                     # 12367 "/opt/microchip/xc8/v1.41/include/pic18f27j13.h"
   479                           SSP1STAT equ 0FC7h ;# 
   480  0000                     # 12372 "/opt/microchip/xc8/v1.41/include/pic18f27j13.h"
   481                           SSPSTAT equ 0FC7h ;# 
   482  0000                     # 12964 "/opt/microchip/xc8/v1.41/include/pic18f27j13.h"
   483                           SSP1ADD equ 0FC8h ;# 
   484  0000                     # 12969 "/opt/microchip/xc8/v1.41/include/pic18f27j13.h"
   485                           SSPADD equ 0FC8h ;# 
   486  0000                     # 13201 "/opt/microchip/xc8/v1.41/include/pic18f27j13.h"
   487                           SSP1MSK equ 0FC8h ;# 
   488  0000                     # 13262 "/opt/microchip/xc8/v1.41/include/pic18f27j13.h"
   489                           SSP1BUF equ 0FC9h ;# 
   490  0000                     # 13267 "/opt/microchip/xc8/v1.41/include/pic18f27j13.h"
   491                           SSPBUF equ 0FC9h ;# 
   492  0000                     # 13299 "/opt/microchip/xc8/v1.41/include/pic18f27j13.h"
   493                           T2CON equ 0FCAh ;# 
   494  0000                     # 13369 "/opt/microchip/xc8/v1.41/include/pic18f27j13.h"
   495                           PR2 equ 0FCBh ;# 
   496  0000                     # 13374 "/opt/microchip/xc8/v1.41/include/pic18f27j13.h"
   497                           MEMCON equ 0FCBh ;# 
   498  0000                     # 13494 "/opt/microchip/xc8/v1.41/include/pic18f27j13.h"
   499                           TMR2 equ 0FCCh ;# 
   500  0000                     # 13513 "/opt/microchip/xc8/v1.41/include/pic18f27j13.h"
   501                           T1CON equ 0FCDh ;# 
   502  0000                     # 13614 "/opt/microchip/xc8/v1.41/include/pic18f27j13.h"
   503                           TMR1 equ 0FCEh ;# 
   504  0000                     # 13620 "/opt/microchip/xc8/v1.41/include/pic18f27j13.h"
   505                           TMR1L equ 0FCEh ;# 
   506  0000                     # 13639 "/opt/microchip/xc8/v1.41/include/pic18f27j13.h"
   507                           TMR1H equ 0FCFh ;# 
   508  0000                     # 13658 "/opt/microchip/xc8/v1.41/include/pic18f27j13.h"
   509                           RCON equ 0FD0h ;# 
   510  0000                     # 13805 "/opt/microchip/xc8/v1.41/include/pic18f27j13.h"
   511                           CM2CON equ 0FD1h ;# 
   512  0000                     # 13810 "/opt/microchip/xc8/v1.41/include/pic18f27j13.h"
   513                           CM2CON1 equ 0FD1h ;# 
   514  0000                     # 14056 "/opt/microchip/xc8/v1.41/include/pic18f27j13.h"
   515                           CM1CON equ 0FD2h ;# 
   516  0000                     # 14061 "/opt/microchip/xc8/v1.41/include/pic18f27j13.h"
   517                           CM1CON1 equ 0FD2h ;# 
   518  0000                     # 14335 "/opt/microchip/xc8/v1.41/include/pic18f27j13.h"
   519                           OSCCON equ 0FD3h ;# 
   520  0000                     # 14406 "/opt/microchip/xc8/v1.41/include/pic18f27j13.h"
   521                           T0CON equ 0FD5h ;# 
   522  0000                     # 14475 "/opt/microchip/xc8/v1.41/include/pic18f27j13.h"
   523                           TMR0 equ 0FD6h ;# 
   524  0000                     # 14481 "/opt/microchip/xc8/v1.41/include/pic18f27j13.h"
   525                           TMR0L equ 0FD6h ;# 
   526  0000                     # 14500 "/opt/microchip/xc8/v1.41/include/pic18f27j13.h"
   527                           TMR0H equ 0FD7h ;# 
   528  0000                     # 14519 "/opt/microchip/xc8/v1.41/include/pic18f27j13.h"
   529                           STATUS equ 0FD8h ;# 
   530  0000                     # 14589 "/opt/microchip/xc8/v1.41/include/pic18f27j13.h"
   531                           FSR2 equ 0FD9h ;# 
   532  0000                     # 14595 "/opt/microchip/xc8/v1.41/include/pic18f27j13.h"
   533                           FSR2L equ 0FD9h ;# 
   534  0000                     # 14614 "/opt/microchip/xc8/v1.41/include/pic18f27j13.h"
   535                           FSR2H equ 0FDAh ;# 
   536  0000                     # 14620 "/opt/microchip/xc8/v1.41/include/pic18f27j13.h"
   537                           PLUSW2 equ 0FDBh ;# 
   538  0000                     # 14639 "/opt/microchip/xc8/v1.41/include/pic18f27j13.h"
   539                           PREINC2 equ 0FDCh ;# 
   540  0000                     # 14658 "/opt/microchip/xc8/v1.41/include/pic18f27j13.h"
   541                           POSTDEC2 equ 0FDDh ;# 
   542  0000                     # 14677 "/opt/microchip/xc8/v1.41/include/pic18f27j13.h"
   543                           POSTINC2 equ 0FDEh ;# 
   544  0000                     # 14696 "/opt/microchip/xc8/v1.41/include/pic18f27j13.h"
   545                           INDF2 equ 0FDFh ;# 
   546  0000                     # 14715 "/opt/microchip/xc8/v1.41/include/pic18f27j13.h"
   547                           BSR equ 0FE0h ;# 
   548  0000                     # 14721 "/opt/microchip/xc8/v1.41/include/pic18f27j13.h"
   549                           FSR1 equ 0FE1h ;# 
   550  0000                     # 14727 "/opt/microchip/xc8/v1.41/include/pic18f27j13.h"
   551                           FSR1L equ 0FE1h ;# 
   552  0000                     # 14746 "/opt/microchip/xc8/v1.41/include/pic18f27j13.h"
   553                           FSR1H equ 0FE2h ;# 
   554  0000                     # 14752 "/opt/microchip/xc8/v1.41/include/pic18f27j13.h"
   555                           PLUSW1 equ 0FE3h ;# 
   556  0000                     # 14771 "/opt/microchip/xc8/v1.41/include/pic18f27j13.h"
   557                           PREINC1 equ 0FE4h ;# 
   558  0000                     # 14790 "/opt/microchip/xc8/v1.41/include/pic18f27j13.h"
   559                           POSTDEC1 equ 0FE5h ;# 
   560  0000                     # 14809 "/opt/microchip/xc8/v1.41/include/pic18f27j13.h"
   561                           POSTINC1 equ 0FE6h ;# 
   562  0000                     # 14828 "/opt/microchip/xc8/v1.41/include/pic18f27j13.h"
   563                           INDF1 equ 0FE7h ;# 
   564  0000                     # 14847 "/opt/microchip/xc8/v1.41/include/pic18f27j13.h"
   565                           WREG equ 0FE8h ;# 
   566  0000                     # 14866 "/opt/microchip/xc8/v1.41/include/pic18f27j13.h"
   567                           FSR0 equ 0FE9h ;# 
   568  0000                     # 14872 "/opt/microchip/xc8/v1.41/include/pic18f27j13.h"
   569                           FSR0L equ 0FE9h ;# 
   570  0000                     # 14891 "/opt/microchip/xc8/v1.41/include/pic18f27j13.h"
   571                           FSR0H equ 0FEAh ;# 
   572  0000                     # 14897 "/opt/microchip/xc8/v1.41/include/pic18f27j13.h"
   573                           PLUSW0 equ 0FEBh ;# 
   574  0000                     # 14916 "/opt/microchip/xc8/v1.41/include/pic18f27j13.h"
   575                           PREINC0 equ 0FECh ;# 
   576  0000                     # 14935 "/opt/microchip/xc8/v1.41/include/pic18f27j13.h"
   577                           POSTDEC0 equ 0FEDh ;# 
   578  0000                     # 14954 "/opt/microchip/xc8/v1.41/include/pic18f27j13.h"
   579                           POSTINC0 equ 0FEEh ;# 
   580  0000                     # 14973 "/opt/microchip/xc8/v1.41/include/pic18f27j13.h"
   581                           INDF0 equ 0FEFh ;# 
   582  0000                     # 14992 "/opt/microchip/xc8/v1.41/include/pic18f27j13.h"
   583                           INTCON3 equ 0FF0h ;# 
   584  0000                     # 15103 "/opt/microchip/xc8/v1.41/include/pic18f27j13.h"
   585                           INTCON2 equ 0FF1h ;# 
   586  0000                     # 15195 "/opt/microchip/xc8/v1.41/include/pic18f27j13.h"
   587                           INTCON equ 0FF2h ;# 
   588  0000                     # 15311 "/opt/microchip/xc8/v1.41/include/pic18f27j13.h"
   589                           PROD equ 0FF3h ;# 
   590  0000                     # 15317 "/opt/microchip/xc8/v1.41/include/pic18f27j13.h"
   591                           PRODL equ 0FF3h ;# 
   592  0000                     # 15336 "/opt/microchip/xc8/v1.41/include/pic18f27j13.h"
   593                           PRODH equ 0FF4h ;# 
   594  0000                     # 15355 "/opt/microchip/xc8/v1.41/include/pic18f27j13.h"
   595                           TABLAT equ 0FF5h ;# 
   596  0000                     # 15376 "/opt/microchip/xc8/v1.41/include/pic18f27j13.h"
   597                           TBLPTR equ 0FF6h ;# 
   598  0000                     # 15382 "/opt/microchip/xc8/v1.41/include/pic18f27j13.h"
   599                           TBLPTRL equ 0FF6h ;# 
   600  0000                     # 15401 "/opt/microchip/xc8/v1.41/include/pic18f27j13.h"
   601                           TBLPTRH equ 0FF7h ;# 
   602  0000                     # 15420 "/opt/microchip/xc8/v1.41/include/pic18f27j13.h"
   603                           TBLPTRU equ 0FF8h ;# 
   604  0000                     # 15428 "/opt/microchip/xc8/v1.41/include/pic18f27j13.h"
   605                           PCLAT equ 0FF9h ;# 
   606  0000                     # 15435 "/opt/microchip/xc8/v1.41/include/pic18f27j13.h"
   607                           PC equ 0FF9h ;# 
   608  0000                     # 15441 "/opt/microchip/xc8/v1.41/include/pic18f27j13.h"
   609                           PCL equ 0FF9h ;# 
   610  0000                     # 15460 "/opt/microchip/xc8/v1.41/include/pic18f27j13.h"
   611                           PCLATH equ 0FFAh ;# 
   612  0000                     # 15479 "/opt/microchip/xc8/v1.41/include/pic18f27j13.h"
   613                           PCLATU equ 0FFBh ;# 
   614  0000                     # 15485 "/opt/microchip/xc8/v1.41/include/pic18f27j13.h"
   615                           STKPTR equ 0FFCh ;# 
   616  0000                     # 15558 "/opt/microchip/xc8/v1.41/include/pic18f27j13.h"
   617                           TOS equ 0FFDh ;# 
   618  0000                     # 15564 "/opt/microchip/xc8/v1.41/include/pic18f27j13.h"
   619                           TOSL equ 0FFDh ;# 
   620  0000                     # 15583 "/opt/microchip/xc8/v1.41/include/pic18f27j13.h"
   621                           TOSH equ 0FFEh ;# 
   622  0000                     # 15602 "/opt/microchip/xc8/v1.41/include/pic18f27j13.h"
   623                           TOSU equ 0FFFh ;# 
   624  0000                     # 51 "/opt/microchip/xc8/v1.41/include/pic18f27j13.h"
   625                           ADCTRIG equ 0EB8h ;# 
   626  0000                     # 106 "/opt/microchip/xc8/v1.41/include/pic18f27j13.h"
   627                           PMDIS0 equ 0EB9h ;# 
   628  0000                     # 111 "/opt/microchip/xc8/v1.41/include/pic18f27j13.h"
   629                           PD0 equ 0EB9h ;# 
   630  0000                     # 411 "/opt/microchip/xc8/v1.41/include/pic18f27j13.h"
   631                           PMDIS1 equ 0EBAh ;# 
   632  0000                     # 416 "/opt/microchip/xc8/v1.41/include/pic18f27j13.h"
   633                           PD1 equ 0EBAh ;# 
   634  0000                     # 624 "/opt/microchip/xc8/v1.41/include/pic18f27j13.h"
   635                           PMDIS2 equ 0EBBh ;# 
   636  0000                     # 629 "/opt/microchip/xc8/v1.41/include/pic18f27j13.h"
   637                           PD2 equ 0EBBh ;# 
   638  0000                     # 833 "/opt/microchip/xc8/v1.41/include/pic18f27j13.h"
   639                           PMDIS3 equ 0EBCh ;# 
   640  0000                     # 838 "/opt/microchip/xc8/v1.41/include/pic18f27j13.h"
   641                           PD3 equ 0EBCh ;# 
   642  0000                     # 1070 "/opt/microchip/xc8/v1.41/include/pic18f27j13.h"
   643                           PPSCON equ 0EBFh ;# 
   644  0000                     # 1089 "/opt/microchip/xc8/v1.41/include/pic18f27j13.h"
   645                           RPOR0 equ 0EC0h ;# 
   646  0000                     # 1095 "/opt/microchip/xc8/v1.41/include/pic18f27j13.h"
   647                           RPOR1 equ 0EC1h ;# 
   648  0000                     # 1101 "/opt/microchip/xc8/v1.41/include/pic18f27j13.h"
   649                           RPOR2 equ 0EC2h ;# 
   650  0000                     # 1107 "/opt/microchip/xc8/v1.41/include/pic18f27j13.h"
   651                           RPOR3 equ 0EC3h ;# 
   652  0000                     # 1113 "/opt/microchip/xc8/v1.41/include/pic18f27j13.h"
   653                           RPOR4 equ 0EC4h ;# 
   654  0000                     # 1119 "/opt/microchip/xc8/v1.41/include/pic18f27j13.h"
   655                           RPOR5 equ 0EC5h ;# 
   656  0000                     # 1125 "/opt/microchip/xc8/v1.41/include/pic18f27j13.h"
   657                           RPOR6 equ 0EC6h ;# 
   658  0000                     # 1131 "/opt/microchip/xc8/v1.41/include/pic18f27j13.h"
   659                           RPOR7 equ 0EC7h ;# 
   660  0000                     # 1137 "/opt/microchip/xc8/v1.41/include/pic18f27j13.h"
   661                           RPOR8 equ 0EC8h ;# 
   662  0000                     # 1143 "/opt/microchip/xc8/v1.41/include/pic18f27j13.h"
   663                           RPOR9 equ 0EC9h ;# 
   664  0000                     # 1149 "/opt/microchip/xc8/v1.41/include/pic18f27j13.h"
   665                           RPOR10 equ 0ECAh ;# 
   666  0000                     # 1155 "/opt/microchip/xc8/v1.41/include/pic18f27j13.h"
   667                           RPOR11 equ 0ECBh ;# 
   668  0000                     # 1161 "/opt/microchip/xc8/v1.41/include/pic18f27j13.h"
   669                           RPOR12 equ 0ECCh ;# 
   670  0000                     # 1167 "/opt/microchip/xc8/v1.41/include/pic18f27j13.h"
   671                           RPOR13 equ 0ECDh ;# 
   672  0000                     # 1173 "/opt/microchip/xc8/v1.41/include/pic18f27j13.h"
   673                           RPOR14 equ 0ECEh ;# 
   674  0000                     # 1179 "/opt/microchip/xc8/v1.41/include/pic18f27j13.h"
   675                           RPOR15 equ 0ECFh ;# 
   676  0000                     # 1185 "/opt/microchip/xc8/v1.41/include/pic18f27j13.h"
   677                           RPOR16 equ 0ED0h ;# 
   678  0000                     # 1191 "/opt/microchip/xc8/v1.41/include/pic18f27j13.h"
   679                           RPOR17 equ 0ED1h ;# 
   680  0000                     # 1197 "/opt/microchip/xc8/v1.41/include/pic18f27j13.h"
   681                           RPOR18 equ 0ED2h ;# 
   682  0000                     # 1203 "/opt/microchip/xc8/v1.41/include/pic18f27j13.h"
   683                           RPINR1 equ 0EE1h ;# 
   684  0000                     # 1209 "/opt/microchip/xc8/v1.41/include/pic18f27j13.h"
   685                           RPINR2 equ 0EE2h ;# 
   686  0000                     # 1215 "/opt/microchip/xc8/v1.41/include/pic18f27j13.h"
   687                           RPINR3 equ 0EE3h ;# 
   688  0000                     # 1221 "/opt/microchip/xc8/v1.41/include/pic18f27j13.h"
   689                           RPINR4 equ 0EE4h ;# 
   690  0000                     # 1227 "/opt/microchip/xc8/v1.41/include/pic18f27j13.h"
   691                           RPINR6 equ 0EE6h ;# 
   692  0000                     # 1233 "/opt/microchip/xc8/v1.41/include/pic18f27j13.h"
   693                           RPINR15 equ 0EE7h ;# 
   694  0000                     # 1239 "/opt/microchip/xc8/v1.41/include/pic18f27j13.h"
   695                           RPINR7 equ 0EE8h ;# 
   696  0000                     # 1245 "/opt/microchip/xc8/v1.41/include/pic18f27j13.h"
   697                           RPINR8 equ 0EE9h ;# 
   698  0000                     # 1251 "/opt/microchip/xc8/v1.41/include/pic18f27j13.h"
   699                           RPINR9 equ 0EEAh ;# 
   700  0000                     # 1257 "/opt/microchip/xc8/v1.41/include/pic18f27j13.h"
   701                           RPINR12 equ 0EF2h ;# 
   702  0000                     # 1263 "/opt/microchip/xc8/v1.41/include/pic18f27j13.h"
   703                           RPINR13 equ 0EF3h ;# 
   704  0000                     # 1269 "/opt/microchip/xc8/v1.41/include/pic18f27j13.h"
   705                           RPINR14 equ 0EF4h ;# 
   706  0000                     # 1275 "/opt/microchip/xc8/v1.41/include/pic18f27j13.h"
   707                           RPINR16 equ 0EF7h ;# 
   708  0000                     # 1281 "/opt/microchip/xc8/v1.41/include/pic18f27j13.h"
   709                           RPINR17 equ 0EF8h ;# 
   710  0000                     # 1287 "/opt/microchip/xc8/v1.41/include/pic18f27j13.h"
   711                           RPINR21 equ 0EFCh ;# 
   712  0000                     # 1293 "/opt/microchip/xc8/v1.41/include/pic18f27j13.h"
   713                           RPINR22 equ 0EFDh ;# 
   714  0000                     # 1299 "/opt/microchip/xc8/v1.41/include/pic18f27j13.h"
   715                           RPINR23 equ 0EFEh ;# 
   716  0000                     # 1305 "/opt/microchip/xc8/v1.41/include/pic18f27j13.h"
   717                           RPINR24 equ 0EFFh ;# 
   718  0000                     # 1311 "/opt/microchip/xc8/v1.41/include/pic18f27j13.h"
   719                           CCP10CON equ 0F00h ;# 
   720  0000                     # 1374 "/opt/microchip/xc8/v1.41/include/pic18f27j13.h"
   721                           CCPR10L equ 0F01h ;# 
   722  0000                     # 1393 "/opt/microchip/xc8/v1.41/include/pic18f27j13.h"
   723                           CCPR10H equ 0F02h ;# 
   724  0000                     # 1412 "/opt/microchip/xc8/v1.41/include/pic18f27j13.h"
   725                           CCP9CON equ 0F03h ;# 
   726  0000                     # 1475 "/opt/microchip/xc8/v1.41/include/pic18f27j13.h"
   727                           CCPR9L equ 0F04h ;# 
   728  0000                     # 1494 "/opt/microchip/xc8/v1.41/include/pic18f27j13.h"
   729                           CCPR9H equ 0F05h ;# 
   730  0000                     # 1513 "/opt/microchip/xc8/v1.41/include/pic18f27j13.h"
   731                           CCP8CON equ 0F06h ;# 
   732  0000                     # 1576 "/opt/microchip/xc8/v1.41/include/pic18f27j13.h"
   733                           CCPR8L equ 0F07h ;# 
   734  0000                     # 1595 "/opt/microchip/xc8/v1.41/include/pic18f27j13.h"
   735                           CCPR8H equ 0F08h ;# 
   736  0000                     # 1614 "/opt/microchip/xc8/v1.41/include/pic18f27j13.h"
   737                           CCP7CON equ 0F09h ;# 
   738  0000                     # 1677 "/opt/microchip/xc8/v1.41/include/pic18f27j13.h"
   739                           CCPR7L equ 0F0Ah ;# 
   740  0000                     # 1696 "/opt/microchip/xc8/v1.41/include/pic18f27j13.h"
   741                           CCPR7H equ 0F0Bh ;# 
   742  0000                     # 1715 "/opt/microchip/xc8/v1.41/include/pic18f27j13.h"
   743                           CCP6CON equ 0F0Ch ;# 
   744  0000                     # 1778 "/opt/microchip/xc8/v1.41/include/pic18f27j13.h"
   745                           CCPR6L equ 0F0Dh ;# 
   746  0000                     # 1797 "/opt/microchip/xc8/v1.41/include/pic18f27j13.h"
   747                           CCPR6H equ 0F0Eh ;# 
   748  0000                     # 1816 "/opt/microchip/xc8/v1.41/include/pic18f27j13.h"
   749                           CCP5CON equ 0F0Fh ;# 
   750  0000                     # 1879 "/opt/microchip/xc8/v1.41/include/pic18f27j13.h"
   751                           CCPR5L equ 0F10h ;# 
   752  0000                     # 1898 "/opt/microchip/xc8/v1.41/include/pic18f27j13.h"
   753                           CCPR5H equ 0F11h ;# 
   754  0000                     # 1917 "/opt/microchip/xc8/v1.41/include/pic18f27j13.h"
   755                           CCP4CON equ 0F12h ;# 
   756  0000                     # 1980 "/opt/microchip/xc8/v1.41/include/pic18f27j13.h"
   757                           CCPR4L equ 0F13h ;# 
   758  0000                     # 1999 "/opt/microchip/xc8/v1.41/include/pic18f27j13.h"
   759                           CCPR4H equ 0F14h ;# 
   760  0000                     # 2018 "/opt/microchip/xc8/v1.41/include/pic18f27j13.h"
   761                           CCP3CON equ 0F15h ;# 
   762  0000                     # 2099 "/opt/microchip/xc8/v1.41/include/pic18f27j13.h"
   763                           CCPR3L equ 0F16h ;# 
   764  0000                     # 2118 "/opt/microchip/xc8/v1.41/include/pic18f27j13.h"
   765                           CCPR3H equ 0F17h ;# 
   766  0000                     # 2137 "/opt/microchip/xc8/v1.41/include/pic18f27j13.h"
   767                           ECCP3DEL equ 0F18h ;# 
   768  0000                     # 2206 "/opt/microchip/xc8/v1.41/include/pic18f27j13.h"
   769                           ECCP3AS equ 0F19h ;# 
   770  0000                     # 2287 "/opt/microchip/xc8/v1.41/include/pic18f27j13.h"
   771                           PSTR3CON equ 0F1Ah ;# 
   772  0000                     # 2397 "/opt/microchip/xc8/v1.41/include/pic18f27j13.h"
   773                           T8CON equ 0F1Bh ;# 
   774  0000                     # 2467 "/opt/microchip/xc8/v1.41/include/pic18f27j13.h"
   775                           PR8 equ 0F1Ch ;# 
   776  0000                     # 2486 "/opt/microchip/xc8/v1.41/include/pic18f27j13.h"
   777                           TMR8 equ 0F1Dh ;# 
   778  0000                     # 2505 "/opt/microchip/xc8/v1.41/include/pic18f27j13.h"
   779                           T6CON equ 0F1Eh ;# 
   780  0000                     # 2575 "/opt/microchip/xc8/v1.41/include/pic18f27j13.h"
   781                           PR6 equ 0F1Fh ;# 
   782  0000                     # 2594 "/opt/microchip/xc8/v1.41/include/pic18f27j13.h"
   783                           TMR6 equ 0F20h ;# 
   784  0000                     # 2613 "/opt/microchip/xc8/v1.41/include/pic18f27j13.h"
   785                           T5GCON equ 0F21h ;# 
   786  0000                     # 2725 "/opt/microchip/xc8/v1.41/include/pic18f27j13.h"
   787                           T5CON equ 0F22h ;# 
   788  0000                     # 2826 "/opt/microchip/xc8/v1.41/include/pic18f27j13.h"
   789                           TMR5L equ 0F23h ;# 
   790  0000                     # 2845 "/opt/microchip/xc8/v1.41/include/pic18f27j13.h"
   791                           TMR5H equ 0F24h ;# 
   792  0000                     # 2864 "/opt/microchip/xc8/v1.41/include/pic18f27j13.h"
   793                           CM3CON equ 0F25h ;# 
   794  0000                     # 2990 "/opt/microchip/xc8/v1.41/include/pic18f27j13.h"
   795                           RTCVALL equ 0F3Ah ;# 
   796  0000                     # 3009 "/opt/microchip/xc8/v1.41/include/pic18f27j13.h"
   797                           RTCVALH equ 0F3Bh ;# 
   798  0000                     # 3078 "/opt/microchip/xc8/v1.41/include/pic18f27j13.h"
   799                           PADCFG1 equ 0F3Ch ;# 
   800  0000                     # 3104 "/opt/microchip/xc8/v1.41/include/pic18f27j13.h"
   801                           REFOCON equ 0F3Dh ;# 
   802  0000                     # 3168 "/opt/microchip/xc8/v1.41/include/pic18f27j13.h"
   803                           RTCCAL equ 0F3Eh ;# 
   804  0000                     # 3237 "/opt/microchip/xc8/v1.41/include/pic18f27j13.h"
   805                           RTCCFG equ 0F3Fh ;# 
   806  0000                     # 3293 "/opt/microchip/xc8/v1.41/include/pic18f27j13.h"
   807                           ODCON3 equ 0F40h ;# 
   808  0000                     # 3325 "/opt/microchip/xc8/v1.41/include/pic18f27j13.h"
   809                           ODCON2 equ 0F41h ;# 
   810  0000                     # 3362 "/opt/microchip/xc8/v1.41/include/pic18f27j13.h"
   811                           ODCON1 equ 0F42h ;# 
   812  0000                     # 3423 "/opt/microchip/xc8/v1.41/include/pic18f27j13.h"
   813                           ALRMVALL equ 0F44h ;# 
   814  0000                     # 3442 "/opt/microchip/xc8/v1.41/include/pic18f27j13.h"
   815                           ALRMVALH equ 0F45h ;# 
   816  0000                     # 3461 "/opt/microchip/xc8/v1.41/include/pic18f27j13.h"
   817                           ALRMRPT equ 0F46h ;# 
   818  0000                     # 3530 "/opt/microchip/xc8/v1.41/include/pic18f27j13.h"
   819                           ALRMCFG equ 0F47h ;# 
   820  0000                     # 3605 "/opt/microchip/xc8/v1.41/include/pic18f27j13.h"
   821                           ANCON0 equ 0F48h ;# 
   822  0000                     # 3648 "/opt/microchip/xc8/v1.41/include/pic18f27j13.h"
   823                           ANCON1 equ 0F49h ;# 
   824  0000                     # 3707 "/opt/microchip/xc8/v1.41/include/pic18f27j13.h"
   825                           DSWAKEL equ 0F4Ah ;# 
   826  0000                     # 3758 "/opt/microchip/xc8/v1.41/include/pic18f27j13.h"
   827                           DSWAKEH equ 0F4Bh ;# 
   828  0000                     # 3777 "/opt/microchip/xc8/v1.41/include/pic18f27j13.h"
   829                           DSCONL equ 0F4Ch ;# 
   830  0000                     # 3808 "/opt/microchip/xc8/v1.41/include/pic18f27j13.h"
   831                           DSCONH equ 0F4Dh ;# 
   832  0000                     # 3840 "/opt/microchip/xc8/v1.41/include/pic18f27j13.h"
   833                           DSGPR0 equ 0F4Eh ;# 
   834  0000                     # 3859 "/opt/microchip/xc8/v1.41/include/pic18f27j13.h"
   835                           DSGPR1 equ 0F4Fh ;# 
   836  0000                     # 3878 "/opt/microchip/xc8/v1.41/include/pic18f27j13.h"
   837                           CCPTMRS2 equ 0F50h ;# 
   838  0000                     # 3924 "/opt/microchip/xc8/v1.41/include/pic18f27j13.h"
   839                           CCPTMRS1 equ 0F51h ;# 
   840  0000                     # 3990 "/opt/microchip/xc8/v1.41/include/pic18f27j13.h"
   841                           CCPTMRS0 equ 0F52h ;# 
   842  0000                     # 4071 "/opt/microchip/xc8/v1.41/include/pic18f27j13.h"
   843                           CVRCON equ 0F53h ;# 
   844  0000                     # 4149 "/opt/microchip/xc8/v1.41/include/pic18f27j13.h"
   845                           DMABCH equ 0F66h ;# 
   846  0000                     # 4168 "/opt/microchip/xc8/v1.41/include/pic18f27j13.h"
   847                           DMABCL equ 0F67h ;# 
   848  0000                     # 4187 "/opt/microchip/xc8/v1.41/include/pic18f27j13.h"
   849                           RXADDRH equ 0F68h ;# 
   850  0000                     # 4206 "/opt/microchip/xc8/v1.41/include/pic18f27j13.h"
   851                           RXADDRL equ 0F69h ;# 
   852  0000                     # 4225 "/opt/microchip/xc8/v1.41/include/pic18f27j13.h"
   853                           TXADDRH equ 0F6Ah ;# 
   854  0000                     # 4244 "/opt/microchip/xc8/v1.41/include/pic18f27j13.h"
   855                           TXADDRL equ 0F6Bh ;# 
   856  0000                     # 4263 "/opt/microchip/xc8/v1.41/include/pic18f27j13.h"
   857                           CMSTAT equ 0F70h ;# 
   858  0000                     # 4268 "/opt/microchip/xc8/v1.41/include/pic18f27j13.h"
   859                           CMSTATUS equ 0F70h ;# 
   860  0000                     # 4324 "/opt/microchip/xc8/v1.41/include/pic18f27j13.h"
   861                           SSP2CON2 equ 0F71h ;# 
   862  0000                     # 4501 "/opt/microchip/xc8/v1.41/include/pic18f27j13.h"
   863                           SSP2CON1 equ 0F72h ;# 
   864  0000                     # 4620 "/opt/microchip/xc8/v1.41/include/pic18f27j13.h"
   865                           SSP2STAT equ 0F73h ;# 
   866  0000                     # 4921 "/opt/microchip/xc8/v1.41/include/pic18f27j13.h"
   867                           SSP2ADD equ 0F74h ;# 
   868  0000                     # 4990 "/opt/microchip/xc8/v1.41/include/pic18f27j13.h"
   869                           SSP2MSK equ 0F74h ;# 
   870  0000                     # 5051 "/opt/microchip/xc8/v1.41/include/pic18f27j13.h"
   871                           SSP2BUF equ 0F75h ;# 
   872  0000                     # 5070 "/opt/microchip/xc8/v1.41/include/pic18f27j13.h"
   873                           T4CON equ 0F76h ;# 
   874  0000                     # 5140 "/opt/microchip/xc8/v1.41/include/pic18f27j13.h"
   875                           PR4 equ 0F77h ;# 
   876  0000                     # 5159 "/opt/microchip/xc8/v1.41/include/pic18f27j13.h"
   877                           TMR4 equ 0F78h ;# 
   878  0000                     # 5178 "/opt/microchip/xc8/v1.41/include/pic18f27j13.h"
   879                           T3CON equ 0F79h ;# 
   880  0000                     # 5288 "/opt/microchip/xc8/v1.41/include/pic18f27j13.h"
   881                           TMR3 equ 0F7Ah ;# 
   882  0000                     # 5294 "/opt/microchip/xc8/v1.41/include/pic18f27j13.h"
   883                           TMR3L equ 0F7Ah ;# 
   884  0000                     # 5313 "/opt/microchip/xc8/v1.41/include/pic18f27j13.h"
   885                           TMR3H equ 0F7Bh ;# 
   886  0000                     # 5332 "/opt/microchip/xc8/v1.41/include/pic18f27j13.h"
   887                           BAUDCON2 equ 0F7Ch ;# 
   888  0000                     # 5454 "/opt/microchip/xc8/v1.41/include/pic18f27j13.h"
   889                           SPBRGH2 equ 0F7Dh ;# 
   890  0000                     # 5473 "/opt/microchip/xc8/v1.41/include/pic18f27j13.h"
   891                           BAUDCON1 equ 0F7Eh ;# 
   892  0000                     # 5478 "/opt/microchip/xc8/v1.41/include/pic18f27j13.h"
   893                           BAUDCON equ 0F7Eh ;# 
   894  0000                     # 5482 "/opt/microchip/xc8/v1.41/include/pic18f27j13.h"
   895                           BAUDCTL equ 0F7Eh ;# 
   896  0000                     # 5979 "/opt/microchip/xc8/v1.41/include/pic18f27j13.h"
   897                           SPBRGH1 equ 0F7Fh ;# 
   898  0000                     # 5984 "/opt/microchip/xc8/v1.41/include/pic18f27j13.h"
   899                           SPBRGH equ 0F7Fh ;# 
   900  0000                     # 6016 "/opt/microchip/xc8/v1.41/include/pic18f27j13.h"
   901                           PORTA equ 0F80h ;# 
   902  0000                     # 6278 "/opt/microchip/xc8/v1.41/include/pic18f27j13.h"
   903                           PORTB equ 0F81h ;# 
   904  0000                     # 6564 "/opt/microchip/xc8/v1.41/include/pic18f27j13.h"
   905                           PORTC equ 0F82h ;# 
   906  0000                     # 6819 "/opt/microchip/xc8/v1.41/include/pic18f27j13.h"
   907                           HLVDCON equ 0F85h ;# 
   908  0000                     # 6888 "/opt/microchip/xc8/v1.41/include/pic18f27j13.h"
   909                           DMACON2 equ 0F86h ;# 
   910  0000                     # 6963 "/opt/microchip/xc8/v1.41/include/pic18f27j13.h"
   911                           OSCCON2 equ 0F87h ;# 
   912  0000                     # 7002 "/opt/microchip/xc8/v1.41/include/pic18f27j13.h"
   913                           DMACON1 equ 0F88h ;# 
   914  0000                     # 7063 "/opt/microchip/xc8/v1.41/include/pic18f27j13.h"
   915                           LATA equ 0F89h ;# 
   916  0000                     # 7164 "/opt/microchip/xc8/v1.41/include/pic18f27j13.h"
   917                           LATB equ 0F8Ah ;# 
   918  0000                     # 7275 "/opt/microchip/xc8/v1.41/include/pic18f27j13.h"
   919                           LATC equ 0F8Bh ;# 
   920  0000                     # 7386 "/opt/microchip/xc8/v1.41/include/pic18f27j13.h"
   921                           PIE4 equ 0F8Eh ;# 
   922  0000                     # 7447 "/opt/microchip/xc8/v1.41/include/pic18f27j13.h"
   923                           PIR4 equ 0F8Fh ;# 
   924  0000                     # 7508 "/opt/microchip/xc8/v1.41/include/pic18f27j13.h"
   925                           IPR4 equ 0F90h ;# 
   926  0000                     # 7577 "/opt/microchip/xc8/v1.41/include/pic18f27j13.h"
   927                           PIE5 equ 0F91h ;# 
   928  0000                     # 7626 "/opt/microchip/xc8/v1.41/include/pic18f27j13.h"
   929                           TRISA equ 0F92h ;# 
   930  0000                     # 7682 "/opt/microchip/xc8/v1.41/include/pic18f27j13.h"
   931                           TRISB equ 0F93h ;# 
   932  0000                     # 7743 "/opt/microchip/xc8/v1.41/include/pic18f27j13.h"
   933                           TRISC equ 0F94h ;# 
   934  0000                     # 7804 "/opt/microchip/xc8/v1.41/include/pic18f27j13.h"
   935                           T3GCON equ 0F97h ;# 
   936  0000                     # 7883 "/opt/microchip/xc8/v1.41/include/pic18f27j13.h"
   937                           PIR5 equ 0F98h ;# 
   938  0000                     # 7932 "/opt/microchip/xc8/v1.41/include/pic18f27j13.h"
   939                           IPR5 equ 0F99h ;# 
   940  0000                     # 8008 "/opt/microchip/xc8/v1.41/include/pic18f27j13.h"
   941                           T1GCON equ 0F9Ah ;# 
   942  0000                     # 8114 "/opt/microchip/xc8/v1.41/include/pic18f27j13.h"
   943                           OSCTUNE equ 0F9Bh ;# 
   944  0000                     # 8183 "/opt/microchip/xc8/v1.41/include/pic18f27j13.h"
   945                           RCSTA2 equ 0F9Ch ;# 
   946  0000                     # 8318 "/opt/microchip/xc8/v1.41/include/pic18f27j13.h"
   947                           PIE1 equ 0F9Dh ;# 
   948  0000                     # 8394 "/opt/microchip/xc8/v1.41/include/pic18f27j13.h"
   949                           PIR1 equ 0F9Eh ;# 
   950  0000                     # 8470 "/opt/microchip/xc8/v1.41/include/pic18f27j13.h"
   951                           IPR1 equ 0F9Fh ;# 
   952  0000                     # 8546 "/opt/microchip/xc8/v1.41/include/pic18f27j13.h"
   953                           PIE2 equ 0FA0h ;# 
   954  0000                     # 8626 "/opt/microchip/xc8/v1.41/include/pic18f27j13.h"
   955                           PIR2 equ 0FA1h ;# 
   956  0000                     # 8706 "/opt/microchip/xc8/v1.41/include/pic18f27j13.h"
   957                           IPR2 equ 0FA2h ;# 
   958  0000                     # 8786 "/opt/microchip/xc8/v1.41/include/pic18f27j13.h"
   959                           PIE3 equ 0FA3h ;# 
   960  0000                     # 8895 "/opt/microchip/xc8/v1.41/include/pic18f27j13.h"
   961                           PIR3 equ 0FA4h ;# 
   962  0000                     # 8972 "/opt/microchip/xc8/v1.41/include/pic18f27j13.h"
   963                           IPR3 equ 0FA5h ;# 
   964  0000                     # 9049 "/opt/microchip/xc8/v1.41/include/pic18f27j13.h"
   965                           EECON1 equ 0FA6h ;# 
   966  0000                     # 9093 "/opt/microchip/xc8/v1.41/include/pic18f27j13.h"
   967                           EECON2 equ 0FA7h ;# 
   968  0000                     # 9112 "/opt/microchip/xc8/v1.41/include/pic18f27j13.h"
   969                           TXSTA2 equ 0FA8h ;# 
   970  0000                     # 9238 "/opt/microchip/xc8/v1.41/include/pic18f27j13.h"
   971                           TXREG2 equ 0FA9h ;# 
   972  0000                     # 9257 "/opt/microchip/xc8/v1.41/include/pic18f27j13.h"
   973                           RCREG2 equ 0FAAh ;# 
   974  0000                     # 9276 "/opt/microchip/xc8/v1.41/include/pic18f27j13.h"
   975                           SPBRG2 equ 0FABh ;# 
   976  0000                     # 9295 "/opt/microchip/xc8/v1.41/include/pic18f27j13.h"
   977                           RCSTA1 equ 0FACh ;# 
   978  0000                     # 9300 "/opt/microchip/xc8/v1.41/include/pic18f27j13.h"
   979                           RCSTA equ 0FACh ;# 
   980  0000                     # 9632 "/opt/microchip/xc8/v1.41/include/pic18f27j13.h"
   981                           TXSTA1 equ 0FADh ;# 
   982  0000                     # 9637 "/opt/microchip/xc8/v1.41/include/pic18f27j13.h"
   983                           TXSTA equ 0FADh ;# 
   984  0000                     # 9919 "/opt/microchip/xc8/v1.41/include/pic18f27j13.h"
   985                           TXREG1 equ 0FAEh ;# 
   986  0000                     # 9924 "/opt/microchip/xc8/v1.41/include/pic18f27j13.h"
   987                           TXREG equ 0FAEh ;# 
   988  0000                     # 9956 "/opt/microchip/xc8/v1.41/include/pic18f27j13.h"
   989                           RCREG1 equ 0FAFh ;# 
   990  0000                     # 9961 "/opt/microchip/xc8/v1.41/include/pic18f27j13.h"
   991                           RCREG equ 0FAFh ;# 
   992  0000                     # 9993 "/opt/microchip/xc8/v1.41/include/pic18f27j13.h"
   993                           SPBRG1 equ 0FB0h ;# 
   994  0000                     # 9998 "/opt/microchip/xc8/v1.41/include/pic18f27j13.h"
   995                           SPBRG equ 0FB0h ;# 
   996  0000                     # 10030 "/opt/microchip/xc8/v1.41/include/pic18f27j13.h"
   997                           CTMUICON equ 0FB1h ;# 
   998  0000                     # 10105 "/opt/microchip/xc8/v1.41/include/pic18f27j13.h"
   999                           CTMUCONL equ 0FB2h ;# 
  1000  0000                     # 10166 "/opt/microchip/xc8/v1.41/include/pic18f27j13.h"
  1001                           CTMUCONH equ 0FB3h ;# 
  1002  0000                     # 10222 "/opt/microchip/xc8/v1.41/include/pic18f27j13.h"
  1003                           CCP2CON equ 0FB4h ;# 
  1004  0000                     # 10227 "/opt/microchip/xc8/v1.41/include/pic18f27j13.h"
  1005                           ECCP2CON equ 0FB4h ;# 
  1006  0000                     # 10413 "/opt/microchip/xc8/v1.41/include/pic18f27j13.h"
  1007                           CCPR2 equ 0FB5h ;# 
  1008  0000                     # 10419 "/opt/microchip/xc8/v1.41/include/pic18f27j13.h"
  1009                           CCPR2L equ 0FB5h ;# 
  1010  0000                     # 10438 "/opt/microchip/xc8/v1.41/include/pic18f27j13.h"
  1011                           CCPR2H equ 0FB6h ;# 
  1012  0000                     # 10457 "/opt/microchip/xc8/v1.41/include/pic18f27j13.h"
  1013                           ECCP2DEL equ 0FB7h ;# 
  1014  0000                     # 10462 "/opt/microchip/xc8/v1.41/include/pic18f27j13.h"
  1015                           PWM2CON equ 0FB7h ;# 
  1016  0000                     # 10594 "/opt/microchip/xc8/v1.41/include/pic18f27j13.h"
  1017                           ECCP2AS equ 0FB8h ;# 
  1018  0000                     # 10675 "/opt/microchip/xc8/v1.41/include/pic18f27j13.h"
  1019                           PSTR2CON equ 0FB9h ;# 
  1020  0000                     # 10916 "/opt/microchip/xc8/v1.41/include/pic18f27j13.h"
  1021                           CCP1CON equ 0FBAh ;# 
  1022  0000                     # 10921 "/opt/microchip/xc8/v1.41/include/pic18f27j13.h"
  1023                           ECCP1CON equ 0FBAh ;# 
  1024  0000                     # 11107 "/opt/microchip/xc8/v1.41/include/pic18f27j13.h"
  1025                           CCPR1 equ 0FBBh ;# 
  1026  0000                     # 11113 "/opt/microchip/xc8/v1.41/include/pic18f27j13.h"
  1027                           CCPR1L equ 0FBBh ;# 
  1028  0000                     # 11132 "/opt/microchip/xc8/v1.41/include/pic18f27j13.h"
  1029                           CCPR1H equ 0FBCh ;# 
  1030  0000                     # 11151 "/opt/microchip/xc8/v1.41/include/pic18f27j13.h"
  1031                           ECCP1DEL equ 0FBDh ;# 
  1032  0000                     # 11156 "/opt/microchip/xc8/v1.41/include/pic18f27j13.h"
  1033                           PWM1CON equ 0FBDh ;# 
  1034  0000                     # 11288 "/opt/microchip/xc8/v1.41/include/pic18f27j13.h"
  1035                           ECCP1AS equ 0FBEh ;# 
  1036  0000                     # 11369 "/opt/microchip/xc8/v1.41/include/pic18f27j13.h"
  1037                           PSTR1CON equ 0FBFh ;# 
  1038  0000                     # 11425 "/opt/microchip/xc8/v1.41/include/pic18f27j13.h"
  1039                           WDTCON equ 0FC0h ;# 
  1040  0000                     # 11494 "/opt/microchip/xc8/v1.41/include/pic18f27j13.h"
  1041                           ADCON1 equ 0FC1h ;# 
  1042  0000                     # 11590 "/opt/microchip/xc8/v1.41/include/pic18f27j13.h"
  1043                           ADCON0 equ 0FC2h ;# 
  1044  0000                     # 11733 "/opt/microchip/xc8/v1.41/include/pic18f27j13.h"
  1045                           ADRES equ 0FC3h ;# 
  1046  0000                     # 11739 "/opt/microchip/xc8/v1.41/include/pic18f27j13.h"
  1047                           ADRESL equ 0FC3h ;# 
  1048  0000                     # 11758 "/opt/microchip/xc8/v1.41/include/pic18f27j13.h"
  1049                           ADRESH equ 0FC4h ;# 
  1050  0000                     # 11777 "/opt/microchip/xc8/v1.41/include/pic18f27j13.h"
  1051                           SSP1CON2 equ 0FC5h ;# 
  1052  0000                     # 11782 "/opt/microchip/xc8/v1.41/include/pic18f27j13.h"
  1053                           SSPCON2 equ 0FC5h ;# 
  1054  0000                     # 12130 "/opt/microchip/xc8/v1.41/include/pic18f27j13.h"
  1055                           SSP1CON1 equ 0FC6h ;# 
  1056  0000                     # 12135 "/opt/microchip/xc8/v1.41/include/pic18f27j13.h"
  1057                           SSPCON1 equ 0FC6h ;# 
  1058  0000                     # 12367 "/opt/microchip/xc8/v1.41/include/pic18f27j13.h"
  1059                           SSP1STAT equ 0FC7h ;# 
  1060  0000                     # 12372 "/opt/microchip/xc8/v1.41/include/pic18f27j13.h"
  1061                           SSPSTAT equ 0FC7h ;# 
  1062  0000                     # 12964 "/opt/microchip/xc8/v1.41/include/pic18f27j13.h"
  1063                           SSP1ADD equ 0FC8h ;# 
  1064  0000                     # 12969 "/opt/microchip/xc8/v1.41/include/pic18f27j13.h"
  1065                           SSPADD equ 0FC8h ;# 
  1066  0000                     # 13201 "/opt/microchip/xc8/v1.41/include/pic18f27j13.h"
  1067                           SSP1MSK equ 0FC8h ;# 
  1068  0000                     # 13262 "/opt/microchip/xc8/v1.41/include/pic18f27j13.h"
  1069                           SSP1BUF equ 0FC9h ;# 
  1070  0000                     # 13267 "/opt/microchip/xc8/v1.41/include/pic18f27j13.h"
  1071                           SSPBUF equ 0FC9h ;# 
  1072  0000                     # 13299 "/opt/microchip/xc8/v1.41/include/pic18f27j13.h"
  1073                           T2CON equ 0FCAh ;# 
  1074  0000                     # 13369 "/opt/microchip/xc8/v1.41/include/pic18f27j13.h"
  1075                           PR2 equ 0FCBh ;# 
  1076  0000                     # 13374 "/opt/microchip/xc8/v1.41/include/pic18f27j13.h"
  1077                           MEMCON equ 0FCBh ;# 
  1078  0000                     # 13494 "/opt/microchip/xc8/v1.41/include/pic18f27j13.h"
  1079                           TMR2 equ 0FCCh ;# 
  1080  0000                     # 13513 "/opt/microchip/xc8/v1.41/include/pic18f27j13.h"
  1081                           T1CON equ 0FCDh ;# 
  1082  0000                     # 13614 "/opt/microchip/xc8/v1.41/include/pic18f27j13.h"
  1083                           TMR1 equ 0FCEh ;# 
  1084  0000                     # 13620 "/opt/microchip/xc8/v1.41/include/pic18f27j13.h"
  1085                           TMR1L equ 0FCEh ;# 
  1086  0000                     # 13639 "/opt/microchip/xc8/v1.41/include/pic18f27j13.h"
  1087                           TMR1H equ 0FCFh ;# 
  1088  0000                     # 13658 "/opt/microchip/xc8/v1.41/include/pic18f27j13.h"
  1089                           RCON equ 0FD0h ;# 
  1090  0000                     # 13805 "/opt/microchip/xc8/v1.41/include/pic18f27j13.h"
  1091                           CM2CON equ 0FD1h ;# 
  1092  0000                     # 13810 "/opt/microchip/xc8/v1.41/include/pic18f27j13.h"
  1093                           CM2CON1 equ 0FD1h ;# 
  1094  0000                     # 14056 "/opt/microchip/xc8/v1.41/include/pic18f27j13.h"
  1095                           CM1CON equ 0FD2h ;# 
  1096  0000                     # 14061 "/opt/microchip/xc8/v1.41/include/pic18f27j13.h"
  1097                           CM1CON1 equ 0FD2h ;# 
  1098  0000                     # 14335 "/opt/microchip/xc8/v1.41/include/pic18f27j13.h"
  1099                           OSCCON equ 0FD3h ;# 
  1100  0000                     # 14406 "/opt/microchip/xc8/v1.41/include/pic18f27j13.h"
  1101                           T0CON equ 0FD5h ;# 
  1102  0000                     # 14475 "/opt/microchip/xc8/v1.41/include/pic18f27j13.h"
  1103                           TMR0 equ 0FD6h ;# 
  1104  0000                     # 14481 "/opt/microchip/xc8/v1.41/include/pic18f27j13.h"
  1105                           TMR0L equ 0FD6h ;# 
  1106  0000                     # 14500 "/opt/microchip/xc8/v1.41/include/pic18f27j13.h"
  1107                           TMR0H equ 0FD7h ;# 
  1108  0000                     # 14519 "/opt/microchip/xc8/v1.41/include/pic18f27j13.h"
  1109                           STATUS equ 0FD8h ;# 
  1110  0000                     # 14589 "/opt/microchip/xc8/v1.41/include/pic18f27j13.h"
  1111                           FSR2 equ 0FD9h ;# 
  1112  0000                     # 14595 "/opt/microchip/xc8/v1.41/include/pic18f27j13.h"
  1113                           FSR2L equ 0FD9h ;# 
  1114  0000                     # 14614 "/opt/microchip/xc8/v1.41/include/pic18f27j13.h"
  1115                           FSR2H equ 0FDAh ;# 
  1116  0000                     # 14620 "/opt/microchip/xc8/v1.41/include/pic18f27j13.h"
  1117                           PLUSW2 equ 0FDBh ;# 
  1118  0000                     # 14639 "/opt/microchip/xc8/v1.41/include/pic18f27j13.h"
  1119                           PREINC2 equ 0FDCh ;# 
  1120  0000                     # 14658 "/opt/microchip/xc8/v1.41/include/pic18f27j13.h"
  1121                           POSTDEC2 equ 0FDDh ;# 
  1122  0000                     # 14677 "/opt/microchip/xc8/v1.41/include/pic18f27j13.h"
  1123                           POSTINC2 equ 0FDEh ;# 
  1124  0000                     # 14696 "/opt/microchip/xc8/v1.41/include/pic18f27j13.h"
  1125                           INDF2 equ 0FDFh ;# 
  1126  0000                     # 14715 "/opt/microchip/xc8/v1.41/include/pic18f27j13.h"
  1127                           BSR equ 0FE0h ;# 
  1128  0000                     # 14721 "/opt/microchip/xc8/v1.41/include/pic18f27j13.h"
  1129                           FSR1 equ 0FE1h ;# 
  1130  0000                     # 14727 "/opt/microchip/xc8/v1.41/include/pic18f27j13.h"
  1131                           FSR1L equ 0FE1h ;# 
  1132  0000                     # 14746 "/opt/microchip/xc8/v1.41/include/pic18f27j13.h"
  1133                           FSR1H equ 0FE2h ;# 
  1134  0000                     # 14752 "/opt/microchip/xc8/v1.41/include/pic18f27j13.h"
  1135                           PLUSW1 equ 0FE3h ;# 
  1136  0000                     # 14771 "/opt/microchip/xc8/v1.41/include/pic18f27j13.h"
  1137                           PREINC1 equ 0FE4h ;# 
  1138  0000                     # 14790 "/opt/microchip/xc8/v1.41/include/pic18f27j13.h"
  1139                           POSTDEC1 equ 0FE5h ;# 
  1140  0000                     # 14809 "/opt/microchip/xc8/v1.41/include/pic18f27j13.h"
  1141                           POSTINC1 equ 0FE6h ;# 
  1142  0000                     # 14828 "/opt/microchip/xc8/v1.41/include/pic18f27j13.h"
  1143                           INDF1 equ 0FE7h ;# 
  1144  0000                     # 14847 "/opt/microchip/xc8/v1.41/include/pic18f27j13.h"
  1145                           WREG equ 0FE8h ;# 
  1146  0000                     # 14866 "/opt/microchip/xc8/v1.41/include/pic18f27j13.h"
  1147                           FSR0 equ 0FE9h ;# 
  1148  0000                     # 14872 "/opt/microchip/xc8/v1.41/include/pic18f27j13.h"
  1149                           FSR0L equ 0FE9h ;# 
  1150  0000                     # 14891 "/opt/microchip/xc8/v1.41/include/pic18f27j13.h"
  1151                           FSR0H equ 0FEAh ;# 
  1152  0000                     # 14897 "/opt/microchip/xc8/v1.41/include/pic18f27j13.h"
  1153                           PLUSW0 equ 0FEBh ;# 
  1154  0000                     # 14916 "/opt/microchip/xc8/v1.41/include/pic18f27j13.h"
  1155                           PREINC0 equ 0FECh ;# 
  1156  0000                     # 14935 "/opt/microchip/xc8/v1.41/include/pic18f27j13.h"
  1157                           POSTDEC0 equ 0FEDh ;# 
  1158  0000                     # 14954 "/opt/microchip/xc8/v1.41/include/pic18f27j13.h"
  1159                           POSTINC0 equ 0FEEh ;# 
  1160  0000                     # 14973 "/opt/microchip/xc8/v1.41/include/pic18f27j13.h"
  1161                           INDF0 equ 0FEFh ;# 
  1162  0000                     # 14992 "/opt/microchip/xc8/v1.41/include/pic18f27j13.h"
  1163                           INTCON3 equ 0FF0h ;# 
  1164  0000                     # 15103 "/opt/microchip/xc8/v1.41/include/pic18f27j13.h"
  1165                           INTCON2 equ 0FF1h ;# 
  1166  0000                     # 15195 "/opt/microchip/xc8/v1.41/include/pic18f27j13.h"
  1167                           INTCON equ 0FF2h ;# 
  1168  0000                     # 15311 "/opt/microchip/xc8/v1.41/include/pic18f27j13.h"
  1169                           PROD equ 0FF3h ;# 
  1170  0000                     # 15317 "/opt/microchip/xc8/v1.41/include/pic18f27j13.h"
  1171                           PRODL equ 0FF3h ;# 
  1172  0000                     # 15336 "/opt/microchip/xc8/v1.41/include/pic18f27j13.h"
  1173                           PRODH equ 0FF4h ;# 
  1174  0000                     # 15355 "/opt/microchip/xc8/v1.41/include/pic18f27j13.h"
  1175                           TABLAT equ 0FF5h ;# 
  1176  0000                     # 15376 "/opt/microchip/xc8/v1.41/include/pic18f27j13.h"
  1177                           TBLPTR equ 0FF6h ;# 
  1178  0000                     # 15382 "/opt/microchip/xc8/v1.41/include/pic18f27j13.h"
  1179                           TBLPTRL equ 0FF6h ;# 
  1180  0000                     # 15401 "/opt/microchip/xc8/v1.41/include/pic18f27j13.h"
  1181                           TBLPTRH equ 0FF7h ;# 
  1182  0000                     # 15420 "/opt/microchip/xc8/v1.41/include/pic18f27j13.h"
  1183                           TBLPTRU equ 0FF8h ;# 
  1184  0000                     # 15428 "/opt/microchip/xc8/v1.41/include/pic18f27j13.h"
  1185                           PCLAT equ 0FF9h ;# 
  1186  0000                     # 15435 "/opt/microchip/xc8/v1.41/include/pic18f27j13.h"
  1187                           PC equ 0FF9h ;# 
  1188  0000                     # 15441 "/opt/microchip/xc8/v1.41/include/pic18f27j13.h"
  1189                           PCL equ 0FF9h ;# 
  1190  0000                     # 15460 "/opt/microchip/xc8/v1.41/include/pic18f27j13.h"
  1191                           PCLATH equ 0FFAh ;# 
  1192  0000                     # 15479 "/opt/microchip/xc8/v1.41/include/pic18f27j13.h"
  1193                           PCLATU equ 0FFBh ;# 
  1194  0000                     # 15485 "/opt/microchip/xc8/v1.41/include/pic18f27j13.h"
  1195                           STKPTR equ 0FFCh ;# 
  1196  0000                     # 15558 "/opt/microchip/xc8/v1.41/include/pic18f27j13.h"
  1197                           TOS equ 0FFDh ;# 
  1198  0000                     # 15564 "/opt/microchip/xc8/v1.41/include/pic18f27j13.h"
  1199                           TOSL equ 0FFDh ;# 
  1200  0000                     # 15583 "/opt/microchip/xc8/v1.41/include/pic18f27j13.h"
  1201                           TOSH equ 0FFEh ;# 
  1202  0000                     # 15602 "/opt/microchip/xc8/v1.41/include/pic18f27j13.h"
  1203                           TOSU equ 0FFFh ;# 
  1204  0000                     	FNCALL	_main,_setup
  1205                           	FNCALL	_main,_write
  1206                           	FNCALL	_setup,_dmx_init
  1207                           	FNCALL	_setup,_dmx_set_address
  1208                           	FNCALL	_setup,_dmx_set_start
  1209                           	FNCALL	_setup,_pin_init
  1210                           	FNCALL	_setup,_timer_init
  1211                           	FNCALL	_setup,_uart_init
  1212                           	FNROOT	_main
  1213                           	FNCALL	_RC1IFInterrupt,_dmx_rx_interrupt
  1214                           	FNCALL	_dmx_rx_interrupt,_toggle
  1215                           	FNCALL	intlevel2,_RC1IFInterrupt
  1216                           	global	intlevel2
  1217                           	FNROOT	intlevel2
  1218                           	global	_DMX_Timer
  1219                           	global	_DMX_RxTimer
  1220                           	global	_DMX_RxDataPtr
  1221                           	global	_DMX_RxAddrCount
  1222                           	global	_DMX_RxChannel
  1223                           	global	_DMX_Flags
  1224                           	global	_DMX_TimerState
  1225                           	global	_DMX_RxState
  1226                           	global	_DMX_RxStart
  1227                           	global	_DMX_RxData
  1228                           	global	_CCPR9L
  1229                           _CCPR9L	set	0xF04
  1230  0000                     	global	_CCPR8L
  1231                           _CCPR8L	set	0xF07
  1232  0000                     	global	_CCPR7L
  1233                           _CCPR7L	set	0xF0A
  1234  0000                     	global	_CCPR6L
  1235                           _CCPR6L	set	0xF0D
  1236  0000                     	global	_CCPR5L
  1237                           _CCPR5L	set	0xF10
  1238  0000                     	global	_CCPR4L
  1239                           _CCPR4L	set	0xF13
  1240  0000                     	global	_CCP9CONbits
  1241                           _CCP9CONbits	set	0xF03
  1242  0000                     	global	_CCP8CONbits
  1243                           _CCP8CONbits	set	0xF06
  1244  0000                     	global	_CCP7CONbits
  1245                           _CCP7CONbits	set	0xF09
  1246  0000                     	global	_CCP6CONbits
  1247                           _CCP6CONbits	set	0xF0C
  1248  0000                     	global	_CCP5CONbits
  1249                           _CCP5CONbits	set	0xF0F
  1250  0000                     	global	_CCP4CONbits
  1251                           _CCP4CONbits	set	0xF12
  1252  0000                     	global	_TMR1
  1253                           _TMR1	set	0xFCE
  1254  0000                     	global	_TXREG
  1255                           _TXREG	set	0xFAE
  1256  0000                     	global	_CCPR1L
  1257                           _CCPR1L	set	0xFBB
  1258  0000                     	global	_PR2
  1259                           _PR2	set	0xFCB
  1260  0000                     	global	_T2CON
  1261                           _T2CON	set	0xFCA
  1262  0000                     	global	_OSCTUNEbits
  1263                           _OSCTUNEbits	set	0xF9B
  1264  0000                     	global	_OSCCONbits
  1265                           _OSCCONbits	set	0xFD3
  1266  0000                     	global	_TRISBbits
  1267                           _TRISBbits	set	0xF93
  1268  0000                     	global	_BAUDCON1bits
  1269                           _BAUDCON1bits	set	0xF7E
  1270  0000                     	global	_PIE1bits
  1271                           _PIE1bits	set	0xF9D
  1272  0000                     	global	_INTCONbits
  1273                           _INTCONbits	set	0xFF2
  1274  0000                     	global	_TRISCbits
  1275                           _TRISCbits	set	0xF94
  1276  0000                     	global	_TXSTA1bits
  1277                           _TXSTA1bits	set	0xFAD
  1278  0000                     	global	_TXREG1
  1279                           _TXREG1	set	0xFAE
  1280  0000                     	global	_RCSTA1bits
  1281                           _RCSTA1bits	set	0xFAC
  1282  0000                     	global	_T1CON
  1283                           _T1CON	set	0xFCD
  1284  0000                     	global	_RCREG1
  1285                           _RCREG1	set	0xFAF
  1286  0000                     	global	_TXSTA1
  1287                           _TXSTA1	set	0xFAD
  1288  0000                     	global	_RCSTA1
  1289                           _RCSTA1	set	0xFAC
  1290  0000                     	global	_BAUDCON1
  1291                           _BAUDCON1	set	0xF7E
  1292  0000                     	global	_SPBRGH1
  1293                           _SPBRGH1	set	0xF7F
  1294  0000                     	global	_SPBRG1
  1295                           _SPBRG1	set	0xFB0
  1296  0000                     	global	_RC1IF
  1297                           _RC1IF	set	0x7CF5
  1298  0000                     	global	_RC3
  1299                           _RC3	set	0x7C13
  1300  0000                     	global	_PEIE
  1301                           _PEIE	set	0x7F96
  1302  0000                     	global	_TMR1IE
  1303                           _TMR1IE	set	0x7CE8
  1304  0000                     	global	_TMR1IF
  1305                           _TMR1IF	set	0x7CF0
  1306  0000                     	global	_RC1IE
  1307                           _RC1IE	set	0x7CED
  1308  0000                     ; #config settings
  1309                           global __CFG_WDTEN$ON
  1310                           __CFG_WDTEN$ON equ 0x0
  1311  0000                     global __CFG_PLLDIV$2
  1312                           __CFG_PLLDIV$2 equ 0x0
  1313  0000                     global __CFG_CFGPLLEN$OFF
  1314                           __CFG_CFGPLLEN$OFF equ 0x0
  1315  0000                     global __CFG_STVREN$ON
  1316                           __CFG_STVREN$ON equ 0x0
  1317  0000                     global __CFG_CP0$OFF
  1318                           __CFG_CP0$OFF equ 0x0
  1319  0000                     global __CFG_OSC$INTOSCPLLO
  1320                           __CFG_OSC$INTOSCPLLO equ 0x0
  1321  0000                     global __CFG_SOSCSEL$HIGH
  1322                           __CFG_SOSCSEL$HIGH equ 0x0
  1323  0000                     global __CFG_CLKOEC$ON
  1324                           __CFG_CLKOEC$ON equ 0x0
  1325  0000                     global __CFG_FCMEN$ON
  1326                           __CFG_FCMEN$ON equ 0x0
  1327  0000                     global __CFG_IESO$ON
  1328                           __CFG_IESO$ON equ 0x0
  1329  0000                     global __CFG_WDTPS$32768
  1330                           __CFG_WDTPS$32768 equ 0x0
  1331  0000                     global __CFG_DSWDTOSC$INTOSCREF
  1332                           __CFG_DSWDTOSC$INTOSCREF equ 0x0
  1333  0000                     global __CFG_RTCOSC$T1OSCREF
  1334                           __CFG_RTCOSC$T1OSCREF equ 0x0
  1335  0000                     global __CFG_DSBOREN$ON
  1336                           __CFG_DSBOREN$ON equ 0x0
  1337  0000                     global __CFG_DSWDTEN$ON
  1338                           __CFG_DSWDTEN$ON equ 0x0
  1339  0000                     global __CFG_DSWDTPS$G2
  1340                           __CFG_DSWDTPS$G2 equ 0x0
  1341  0000                     global __CFG_IOL1WAY$ON
  1342                           __CFG_IOL1WAY$ON equ 0x0
  1343  0000                     global __CFG_ADCSEL$BIT10
  1344                           __CFG_ADCSEL$BIT10 equ 0x0
  1345  0000                     global __CFG_PLLSEL$PLL96
  1346                           __CFG_PLLSEL$PLL96 equ 0x0
  1347  0000                     global __CFG_MSSP7B_EN$MSK7
  1348                           __CFG_MSSP7B_EN$MSK7 equ 0x0
  1349  0000                     global __CFG_WPFP$PAGE_127
  1350                           __CFG_WPFP$PAGE_127 equ 0x0
  1351  0000                     global __CFG_WPCFG$OFF
  1352                           __CFG_WPCFG$OFF equ 0x0
  1353  0000                     global __CFG_WPDIS$OFF
  1354                           __CFG_WPDIS$OFF equ 0x0
  1355  0000                     global __CFG_WPEND$PAGE_WPFP
  1356                           __CFG_WPEND$PAGE_WPFP equ 0x0
  1357  0000                     	file	"/tmp/xcXd2J2rf"
  1358                           	line	#
  1359                           psect	cinit,class=CODE,delta=1,reloc=2
  1360                           global __pcinit
  1361                           __pcinit:
  1362  0003D0                     global start_initialization
  1363                           start_initialization:
  1364  0003D0                     
  1365                           global __initialization
  1366                           __initialization:
  1367  0003D0                     psect	bssCOMRAM,class=COMRAM,space=1,noexec
  1368                           global __pbssCOMRAM
  1369                           __pbssCOMRAM:
  1370  000001                     	global	_channelValues
  1371                           	global	_channelValues
  1372                           _channelValues:
  1373  000001                            ds      6
  1374  000001                     	global	_DMX_Timer
  1375                           _DMX_Timer:
  1376  000007                            ds      6
  1377  000007                     	global	_DMX_RxTimer
  1378                           _DMX_RxTimer:
  1379  00000D                            ds      2
  1380  00000D                     	global	_DMX_RxDataPtr
  1381                           _DMX_RxDataPtr:
  1382  00000F                            ds      2
  1383  00000F                     	global	_DMX_RxAddrCount
  1384                           _DMX_RxAddrCount:
  1385  000011                            ds      2
  1386  000011                     	global	_DMX_RxChannel
  1387                           _DMX_RxChannel:
  1388  000013                            ds      2
  1389  000013                     	global	_DMX_Flags
  1390                           _DMX_Flags:
  1391  000015                            ds      1
  1392  000015                     	global	_DMX_TimerState
  1393                           _DMX_TimerState:
  1394  000016                            ds      1
  1395  000016                     	global	_DMX_RxState
  1396                           _DMX_RxState:
  1397  000017                            ds      1
  1398  000017                     	global	_DMX_RxStart
  1399                           _DMX_RxStart:
  1400  000018                            ds      1
  1401  000018                     	global	_DMX_RxData
  1402                           _DMX_RxData:
  1403  000019                            ds      6
  1404  000019                     	file	"/tmp/xcXd2J2rf"
  1405                           	line	#
  1406                           psect	cinit
  1407                           ; Clear objects allocated to COMRAM (30 bytes)
  1408                           	global __pbssCOMRAM
  1409                           lfsr	0,__pbssCOMRAM
  1410  0003D0  EE00  F001         movlw	30
  1411  0003D4  0E1E               clear_0:
  1412  0003D6                     clrf	postinc0,c
  1413  0003D6  6AEE               decf	wreg
  1414  0003D8  06E8               bnz	clear_0
  1415  0003DA  E1FD               psect cinit,class=CODE,delta=1
  1416                           global end_of_initialization,__end_of__initialization
  1417                           
  1418                           ;End of C runtime variable initialization code
  1419                           
  1420                           end_of_initialization:
  1421  0003DC                     __end_of__initialization:
  1422  0003DC                     	bcf int$flags,0,c ;clear compiler interrupt flag (level 1)
  1423  0003DC  9032               	bcf int$flags,1,c ;clear compiler interrupt flag (level 2)
  1424  0003DE  9232               movlb 0
  1425  0003E0  0100               goto _main	;jump to C main() function
  1426  0003E2  EFDC  F001         psect	cstackCOMRAM,class=COMRAM,space=1,noexec
  1427                           global __pcstackCOMRAM
  1428                           __pcstackCOMRAM:
  1429  00001F                     ?_dmx_rx_interrupt:	; 1 bytes @ 0x0
  1430  00001F                     ??_dmx_rx_interrupt:	; 1 bytes @ 0x0
  1431  00001F                     ?_dmx_init:	; 1 bytes @ 0x0
  1432  00001F                     ?_dmx_set_start:	; 1 bytes @ 0x0
  1433  00001F                     ?_toggle:	; 1 bytes @ 0x0
  1434  00001F                     ??_toggle:	; 1 bytes @ 0x0
  1435  00001F                     ?_uart_init:	; 1 bytes @ 0x0
  1436  00001F                     ?_pin_init:	; 1 bytes @ 0x0
  1437  00001F                     ?_timer_init:	; 1 bytes @ 0x0
  1438  00001F                     ?_setup:	; 1 bytes @ 0x0
  1439  00001F                     ?_RC1IFInterrupt:	; 1 bytes @ 0x0
  1440  00001F                     ?_write:	; 1 bytes @ 0x0
  1441  00001F                     ?_main:	; 2 bytes @ 0x0
  1442  00001F                     	ds   2
  1443  00001F                     	global	dmx_rx_interrupt@RxDat
  1444                           dmx_rx_interrupt@RxDat:	; 1 bytes @ 0x2
  1445  000021                     	ds   1
  1446  000021                     ??_RC1IFInterrupt:	; 1 bytes @ 0x3
  1447  000022                     	ds   14
  1448  000022                     ??_dmx_init:	; 1 bytes @ 0x11
  1449  000030                     ??_dmx_set_start:	; 1 bytes @ 0x11
  1450  000030                     ?_dmx_set_address:	; 1 bytes @ 0x11
  1451  000030                     ??_uart_init:	; 1 bytes @ 0x11
  1452  000030                     ??_pin_init:	; 1 bytes @ 0x11
  1453  000030                     ??_timer_init:	; 1 bytes @ 0x11
  1454  000030                     ??_write:	; 1 bytes @ 0x11
  1455  000030                     	global	dmx_set_start@start
  1456                           dmx_set_start@start:	; 1 bytes @ 0x11
  1457  000030                     	global	dmx_init@load
  1458                           dmx_init@load:	; 2 bytes @ 0x11
  1459  000030                     	global	dmx_set_address@base
  1460                           dmx_set_address@base:	; 2 bytes @ 0x11
  1461  000030                     	ds   2
  1462  000030                     ??_dmx_set_address:	; 1 bytes @ 0x13
  1463  000032                     ??_setup:	; 1 bytes @ 0x13
  1464  000032                     ??_main:	; 1 bytes @ 0x13
  1465  000032                     ;!
  1466                           ;!Data Sizes:
  1467                           ;!    Strings     0
  1468                           ;!    Constant    0
  1469                           ;!    Data        0
  1470                           ;!    BSS         30
  1471                           ;!    Persistent  0
  1472                           ;!    Stack       0
  1473                           ;!
  1474                           ;!Auto Spaces:
  1475                           ;!    Space          Size  Autos    Used
  1476                           ;!    COMRAM           94     19      49
  1477                           ;!    BANK0           160      0       0
  1478                           ;!    BANK1           256      0       0
  1479                           ;!    BANK2           256      0       0
  1480                           ;!    BANK3           256      0       0
  1481                           ;!    BANK4           256      0       0
  1482                           ;!    BANK5           256      0       0
  1483                           ;!    BANK6           256      0       0
  1484                           ;!    BANK7           256      0       0
  1485                           ;!    BANK8           256      0       0
  1486                           ;!    BANK9           256      0       0
  1487                           ;!    BANK10          256      0       0
  1488                           ;!    BANK11          256      0       0
  1489                           ;!    BANK12          256      0       0
  1490                           ;!    BANK13          256      0       0
  1491                           ;!    BANK14          176      0       0
  1492                           
  1493                           ;!
  1494                           ;!Pointer List with Targets:
  1495                           ;!
  1496                           ;!    DMX_RxDataPtr	PTR volatile unsigned char  size(2) Largest target is 6
  1497                           ;!		 -> NULL(NULL[0]), DMX_RxData(COMRAM[6]), 
  1498                           ;!
  1499                           
  1500                           
  1501                           ;!
  1502                           ;!Critical Paths under _main in COMRAM
  1503                           ;!
  1504                           ;!    _setup->_dmx_init
  1505                           ;!    _setup->_dmx_set_address
  1506                           ;!
  1507                           ;!Critical Paths under _RC1IFInterrupt in COMRAM
  1508                           ;!
  1509                           ;!    _RC1IFInterrupt->_dmx_rx_interrupt
  1510                           ;!
  1511                           ;!Critical Paths under _main in BANK0
  1512                           ;!
  1513                           ;!    None.
  1514                           ;!
  1515                           ;!Critical Paths under _RC1IFInterrupt in BANK0
  1516                           ;!
  1517                           ;!    None.
  1518                           ;!
  1519                           ;!Critical Paths under _main in BANK1
  1520                           ;!
  1521                           ;!    None.
  1522                           ;!
  1523                           ;!Critical Paths under _RC1IFInterrupt in BANK1
  1524                           ;!
  1525                           ;!    None.
  1526                           ;!
  1527                           ;!Critical Paths under _main in BANK2
  1528                           ;!
  1529                           ;!    None.
  1530                           ;!
  1531                           ;!Critical Paths under _RC1IFInterrupt in BANK2
  1532                           ;!
  1533                           ;!    None.
  1534                           ;!
  1535                           ;!Critical Paths under _main in BANK3
  1536                           ;!
  1537                           ;!    None.
  1538                           ;!
  1539                           ;!Critical Paths under _RC1IFInterrupt in BANK3
  1540                           ;!
  1541                           ;!    None.
  1542                           ;!
  1543                           ;!Critical Paths under _main in BANK4
  1544                           ;!
  1545                           ;!    None.
  1546                           ;!
  1547                           ;!Critical Paths under _RC1IFInterrupt in BANK4
  1548                           ;!
  1549                           ;!    None.
  1550                           ;!
  1551                           ;!Critical Paths under _main in BANK5
  1552                           ;!
  1553                           ;!    None.
  1554                           ;!
  1555                           ;!Critical Paths under _RC1IFInterrupt in BANK5
  1556                           ;!
  1557                           ;!    None.
  1558                           ;!
  1559                           ;!Critical Paths under _main in BANK6
  1560                           ;!
  1561                           ;!    None.
  1562                           ;!
  1563                           ;!Critical Paths under _RC1IFInterrupt in BANK6
  1564                           ;!
  1565                           ;!    None.
  1566                           ;!
  1567                           ;!Critical Paths under _main in BANK7
  1568                           ;!
  1569                           ;!    None.
  1570                           ;!
  1571                           ;!Critical Paths under _RC1IFInterrupt in BANK7
  1572                           ;!
  1573                           ;!    None.
  1574                           ;!
  1575                           ;!Critical Paths under _main in BANK8
  1576                           ;!
  1577                           ;!    None.
  1578                           ;!
  1579                           ;!Critical Paths under _RC1IFInterrupt in BANK8
  1580                           ;!
  1581                           ;!    None.
  1582                           ;!
  1583                           ;!Critical Paths under _main in BANK9
  1584                           ;!
  1585                           ;!    None.
  1586                           ;!
  1587                           ;!Critical Paths under _RC1IFInterrupt in BANK9
  1588                           ;!
  1589                           ;!    None.
  1590                           ;!
  1591                           ;!Critical Paths under _main in BANK10
  1592                           ;!
  1593                           ;!    None.
  1594                           ;!
  1595                           ;!Critical Paths under _RC1IFInterrupt in BANK10
  1596                           ;!
  1597                           ;!    None.
  1598                           ;!
  1599                           ;!Critical Paths under _main in BANK11
  1600                           ;!
  1601                           ;!    None.
  1602                           ;!
  1603                           ;!Critical Paths under _RC1IFInterrupt in BANK11
  1604                           ;!
  1605                           ;!    None.
  1606                           ;!
  1607                           ;!Critical Paths under _main in BANK12
  1608                           ;!
  1609                           ;!    None.
  1610                           ;!
  1611                           ;!Critical Paths under _RC1IFInterrupt in BANK12
  1612                           ;!
  1613                           ;!    None.
  1614                           ;!
  1615                           ;!Critical Paths under _main in BANK13
  1616                           ;!
  1617                           ;!    None.
  1618                           ;!
  1619                           ;!Critical Paths under _RC1IFInterrupt in BANK13
  1620                           ;!
  1621                           ;!    None.
  1622                           ;!
  1623                           ;!Critical Paths under _main in BANK14
  1624                           ;!
  1625                           ;!    None.
  1626                           ;!
  1627                           ;!Critical Paths under _RC1IFInterrupt in BANK14
  1628                           ;!
  1629                           ;!    None.
  1630                           
  1631 ;;
  1632 ;;Main: autosize = 0, tempsize = 0, incstack = 0, save=0
  1633 ;;
  1634                           
  1635                           ;!
  1636                           ;!Call Graph Tables:
  1637                           ;!
  1638                           ;! ---------------------------------------------------------------------------------
  1639                           ;! (Depth) Function   	        Calls       Base Space   Used Autos Params    Refs
  1640                           ;! ---------------------------------------------------------------------------------
  1641                           ;! (0) _main                                                 0     0      0     169
  1642                           ;!                              _setup
  1643                           ;!                              _write
  1644                           ;! ---------------------------------------------------------------------------------
  1645                           ;! (1) _write                                                0     0      0       0
  1646                           ;! ---------------------------------------------------------------------------------
  1647                           ;! (1) _setup                                                0     0      0     169
  1648                           ;!                           _dmx_init
  1649                           ;!                    _dmx_set_address
  1650                           ;!                      _dmx_set_start
  1651                           ;!                           _pin_init
  1652                           ;!                         _timer_init
  1653                           ;!                          _uart_init
  1654                           ;! ---------------------------------------------------------------------------------
  1655                           ;! (2) _uart_init                                            0     0      0       0
  1656                           ;! ---------------------------------------------------------------------------------
  1657                           ;! (2) _timer_init                                           0     0      0       0
  1658                           ;! ---------------------------------------------------------------------------------
  1659                           ;! (2) _pin_init                                             0     0      0       0
  1660                           ;! ---------------------------------------------------------------------------------
  1661                           ;! (2) _dmx_set_start                                        1     1      0      15
  1662                           ;!                                             17 COMRAM     1     1      0
  1663                           ;! ---------------------------------------------------------------------------------
  1664                           ;! (2) _dmx_set_address                                      2     0      2     109
  1665                           ;!                                             17 COMRAM     2     0      2
  1666                           ;! ---------------------------------------------------------------------------------
  1667                           ;! (2) _dmx_init                                             2     2      0      45
  1668                           ;!                                             17 COMRAM     2     2      0
  1669                           ;! ---------------------------------------------------------------------------------
  1670                           ;! Estimated maximum stack depth 2
  1671                           ;! ---------------------------------------------------------------------------------
  1672                           ;! (Depth) Function   	        Calls       Base Space   Used Autos Params    Refs
  1673                           ;! ---------------------------------------------------------------------------------
  1674                           ;! (3) _RC1IFInterrupt                                      14    14      0      45
  1675                           ;!                                              3 COMRAM    14    14      0
  1676                           ;!                   _dmx_rx_interrupt
  1677                           ;! ---------------------------------------------------------------------------------
  1678                           ;! (4) _dmx_rx_interrupt                                     3     3      0      45
  1679                           ;!                                              0 COMRAM     3     3      0
  1680                           ;!                             _toggle
  1681                           ;! ---------------------------------------------------------------------------------
  1682                           ;! (5) _toggle                                               0     0      0       0
  1683                           ;! ---------------------------------------------------------------------------------
  1684                           ;! Estimated maximum stack depth 5
  1685                           ;! ---------------------------------------------------------------------------------
  1686                           ;!
  1687                           ;! Call Graph Graphs:
  1688                           ;!
  1689                           ;! _main (ROOT)
  1690                           ;!   _setup
  1691                           ;!     _dmx_init
  1692                           ;!     _dmx_set_address
  1693                           ;!     _dmx_set_start
  1694                           ;!     _pin_init
  1695                           ;!     _timer_init
  1696                           ;!     _uart_init
  1697                           ;!   _write
  1698                           ;!
  1699                           ;! _RC1IFInterrupt (ROOT)
  1700                           ;!   _dmx_rx_interrupt
  1701                           ;!     _toggle
  1702                           ;!
  1703                           
  1704                           ;! Address spaces:
  1705                           
  1706                           ;!Name               Size   Autos  Total    Cost      Usage
  1707                           ;!BIGRAM             EAF      0       0      35        0.0%
  1708                           ;!BITBANK13          100      0       0      31        0.0%
  1709                           ;!BANK13             100      0       0      32        0.0%
  1710                           ;!BITBANK12          100      0       0      29        0.0%
  1711                           ;!BANK12             100      0       0      30        0.0%
  1712                           ;!BITBANK11          100      0       0      27        0.0%
  1713                           ;!BANK11             100      0       0      28        0.0%
  1714                           ;!BITBANK10          100      0       0      25        0.0%
  1715                           ;!BANK10             100      0       0      26        0.0%
  1716                           ;!BITBANK9           100      0       0      23        0.0%
  1717                           ;!BANK9              100      0       0      24        0.0%
  1718                           ;!BITBANK8           100      0       0      21        0.0%
  1719                           ;!BANK8              100      0       0      22        0.0%
  1720                           ;!BITBANK7           100      0       0      19        0.0%
  1721                           ;!BANK7              100      0       0      20        0.0%
  1722                           ;!BITBANK6           100      0       0      17        0.0%
  1723                           ;!BANK6              100      0       0      18        0.0%
  1724                           ;!BITBANK5           100      0       0      15        0.0%
  1725                           ;!BANK5              100      0       0      16        0.0%
  1726                           ;!BITBANK4           100      0       0      13        0.0%
  1727                           ;!BANK4              100      0       0      14        0.0%
  1728                           ;!BITBANK3           100      0       0      11        0.0%
  1729                           ;!BANK3              100      0       0      12        0.0%
  1730                           ;!BITBANK2           100      0       0       9        0.0%
  1731                           ;!BANK2              100      0       0      10        0.0%
  1732                           ;!BITBANK1           100      0       0       7        0.0%
  1733                           ;!BANK1              100      0       0       8        0.0%
  1734                           ;!BITBANK14           B0      0       0      33        0.0%
  1735                           ;!BANK14              B0      0       0      34        0.0%
  1736                           ;!BITBANK0            A0      0       0       4        0.0%
  1737                           ;!BANK0               A0      0       0       5        0.0%
  1738                           ;!BITCOMRAM           5E      0       0       0        0.0%
  1739                           ;!COMRAM              5E     13      31       1       52.1%
  1740                           ;!BITSFR_2             0      0       0     200        0.0%
  1741                           ;!SFR_2                0      0       0     200        0.0%
  1742                           ;!BITSFR_1             0      0       0     200        0.0%
  1743                           ;!SFR_1                0      0       0     200        0.0%
  1744                           ;!BITSFR               0      0       0     200        0.0%
  1745                           ;!SFR                  0      0       0     200        0.0%
  1746                           ;!STACK                0      0       0       2        0.0%
  1747                           ;!NULL                 0      0       0       0        0.0%
  1748                           ;!ABS                  0      0      31       6        0.0%
  1749                           ;!DATA                 0      0      31       3        0.0%
  1750                           ;!CODE                 0      0       0       0        0.0%
  1751                           
  1752                           	global	_main
  1753                           
  1754 ;; *************** function _main *****************
  1755 ;; Defined at:
  1756 ;;		line 122 in file "dome_main.c"
  1757 ;; Parameters:    Size  Location     Type
  1758 ;;		None
  1759 ;; Auto vars:     Size  Location     Type
  1760 ;;		None
  1761 ;; Return value:  Size  Location     Type
  1762 ;;                  2  277[None  ] int 
  1763 ;; Registers used:
  1764 ;;		wreg, fsr2l, fsr2h, status,2, status,0, cstack
  1765 ;; Tracked objects:
  1766 ;;		On entry : 0/0
  1767 ;;		On exit  : 0/0
  1768 ;;		Unchanged: 0/0
  1769 ;; Data sizes:     COMRAM   BANK0   BANK1   BANK2   BANK3   BANK4   BANK5   BANK6   BANK7   BANK8   BANK9  BANK10  BANK1
       1  BANK12  BANK13  BANK14
  1770 ;;      Params:         0       0       0       0       0       0       0       0       0       0       0       0       
       0       0       0       0
  1771 ;;      Locals:         0       0       0       0       0       0       0       0       0       0       0       0       
       0       0       0       0
  1772 ;;      Temps:          0       0       0       0       0       0       0       0       0       0       0       0       
       0       0       0       0
  1773 ;;      Totals:         0       0       0       0       0       0       0       0       0       0       0       0       
       0       0       0       0
  1774 ;;Total ram usage:        0 bytes
  1775 ;; Hardware stack levels required when called:    5
  1776 ;; This function calls:
  1777 ;;		_setup
  1778 ;;		_write
  1779 ;; This function is called by:
  1780 ;;		Startup code after reset
  1781 ;; This function uses a non-reentrant model
  1782 ;;
  1783                           psect	text0,class=CODE,space=0,reloc=2,group=0
  1784                           	file	"dome_main.c"
  1785                           	line	122
  1786                           global __ptext0
  1787                           __ptext0:
  1788  0003B8                     psect	text0
  1789                           	file	"dome_main.c"
  1790                           	line	122
  1791                           	global	__size_of_main
  1792                           	__size_of_main	equ	__end_of_main-_main
  1793  0000                     	
  1794                           _main:
  1795  0003B8                     ;incstack = 0
  1796                           	opt	stack 26
  1797                           	line	123
  1798                           	
  1799                           l1233:
  1800  0003B8                     ;dome_main.c: 123: setup();
  1801                           	call	_setup	;wreg free
  1802  0003B8  EC8A  F001         	goto	l1235
  1803  0003BC  EFE0  F001         	line	125
  1804                           ;dome_main.c: 125: while(1)
  1805                           	
  1806                           l278:
  1807  0003C0                     	line	130
  1808                           	
  1809                           l1235:
  1810  0003C0                     ;dome_main.c: 126: {
  1811                           ;dome_main.c: 130: write();
  1812                           	call	_write	;wreg free
  1813  0003C0  ECCF  F001         	goto	l1235
  1814  0003C4  EFE0  F001         	line	135
  1815                           	
  1816                           l279:
  1817  0003C8                     	line	125
  1818                           	goto	l1235
  1819  0003C8  EFE0  F001         	
  1820                           l280:
  1821  0003CC                     	line	138
  1822                           ;dome_main.c: 135: }
  1823                           ;dome_main.c: 137: return 0;
  1824                           ;	Return value of _main is never used
  1825                           	
  1826                           l281:
  1827  0003CC                     	global	start
  1828                           	goto	start
  1829  0003CC  EF41  F000         	opt stack 0
  1830                           GLOBAL	__end_of_main
  1831                           	__end_of_main:
  1832  0003D0                     	signat	_main,90
  1833                           	global	_write
  1834                           
  1835 ;; *************** function _write *****************
  1836 ;; Defined at:
  1837 ;;		line 112 in file "dome_main.c"
  1838 ;; Parameters:    Size  Location     Type
  1839 ;;		None
  1840 ;; Auto vars:     Size  Location     Type
  1841 ;;		None
  1842 ;; Return value:  Size  Location     Type
  1843 ;;                  1    wreg      void 
  1844 ;; Registers used:
  1845 ;;		None
  1846 ;; Tracked objects:
  1847 ;;		On entry : 0/0
  1848 ;;		On exit  : 0/0
  1849 ;;		Unchanged: 0/0
  1850 ;; Data sizes:     COMRAM   BANK0   BANK1   BANK2   BANK3   BANK4   BANK5   BANK6   BANK7   BANK8   BANK9  BANK10  BANK1
       1  BANK12  BANK13  BANK14
  1851 ;;      Params:         0       0       0       0       0       0       0       0       0       0       0       0       
       0       0       0       0
  1852 ;;      Locals:         0       0       0       0       0       0       0       0       0       0       0       0       
       0       0       0       0
  1853 ;;      Temps:          0       0       0       0       0       0       0       0       0       0       0       0       
       0       0       0       0
  1854 ;;      Totals:         0       0       0       0       0       0       0       0       0       0       0       0       
       0       0       0       0
  1855 ;;Total ram usage:        0 bytes
  1856 ;; Hardware stack levels used:    1
  1857 ;; Hardware stack levels required when called:    3
  1858 ;; This function calls:
  1859 ;;		Nothing
  1860 ;; This function is called by:
  1861 ;;		_main
  1862 ;; This function uses a non-reentrant model
  1863 ;;
  1864                           psect	text1,class=CODE,space=0,reloc=2,group=0
  1865                           	line	112
  1866                           global __ptext1
  1867                           __ptext1:
  1868  00039E                     psect	text1
  1869                           	file	"dome_main.c"
  1870                           	line	112
  1871                           	global	__size_of_write
  1872                           	__size_of_write	equ	__end_of_write-_write
  1873  0000                     	
  1874                           _write:
  1875  00039E                     ;incstack = 0
  1876                           	opt	stack 27
  1877                           	line	114
  1878                           	
  1879                           l1069:
  1880  00039E                     ;dome_main.c: 114: CCPR4L = DMX_RxData[3];
  1881                           	movff	0+((c:_DMX_RxData)+03h),(3859)	;volatile
  1882  00039E  C01C  FF13         	line	115
  1883                           ;dome_main.c: 115: CCPR5L = DMX_RxData[1];
  1884                           	movff	0+((c:_DMX_RxData)+01h),(3856)	;volatile
  1885  0003A2  C01A  FF10         	line	116
  1886                           ;dome_main.c: 116: CCPR6L = DMX_RxData[2];
  1887                           	movff	0+((c:_DMX_RxData)+02h),(3853)	;volatile
  1888  0003A6  C01B  FF0D         	line	117
  1889                           ;dome_main.c: 117: CCPR7L = DMX_RxData[0];
  1890                           	movff	(c:_DMX_RxData),(3850)	;volatile
  1891  0003AA  C019  FF0A         	line	118
  1892                           ;dome_main.c: 118: CCPR8L = DMX_RxData[4];
  1893                           	movff	0+((c:_DMX_RxData)+04h),(3847)	;volatile
  1894  0003AE  C01D  FF07         	line	119
  1895                           ;dome_main.c: 119: CCPR9L = DMX_RxData[5];
  1896                           	movff	0+((c:_DMX_RxData)+05h),(3844)	;volatile
  1897  0003B2  C01E  FF04         	line	120
  1898                           	
  1899                           l275:
  1900  0003B6                     	return	;funcret
  1901  0003B6  0012               	opt stack 0
  1902                           GLOBAL	__end_of_write
  1903                           	__end_of_write:
  1904  0003B8                     	signat	_write,89
  1905                           	global	_setup
  1906                           
  1907 ;; *************** function _setup *****************
  1908 ;; Defined at:
  1909 ;;		line 71 in file "dome_main.c"
  1910 ;; Parameters:    Size  Location     Type
  1911 ;;		None
  1912 ;; Auto vars:     Size  Location     Type
  1913 ;;		None
  1914 ;; Return value:  Size  Location     Type
  1915 ;;                  1    wreg      void 
  1916 ;; Registers used:
  1917 ;;		wreg, fsr2l, fsr2h, status,2, status,0, cstack
  1918 ;; Tracked objects:
  1919 ;;		On entry : 0/0
  1920 ;;		On exit  : 0/0
  1921 ;;		Unchanged: 0/0
  1922 ;; Data sizes:     COMRAM   BANK0   BANK1   BANK2   BANK3   BANK4   BANK5   BANK6   BANK7   BANK8   BANK9  BANK10  BANK1
       1  BANK12  BANK13  BANK14
  1923 ;;      Params:         0       0       0       0       0       0       0       0       0       0       0       0       
       0       0       0       0
  1924 ;;      Locals:         0       0       0       0       0       0       0       0       0       0       0       0       
       0       0       0       0
  1925 ;;      Temps:          0       0       0       0       0       0       0       0       0       0       0       0       
       0       0       0       0
  1926 ;;      Totals:         0       0       0       0       0       0       0       0       0       0       0       0       
       0       0       0       0
  1927 ;;Total ram usage:        0 bytes
  1928 ;; Hardware stack levels used:    1
  1929 ;; Hardware stack levels required when called:    4
  1930 ;; This function calls:
  1931 ;;		_dmx_init
  1932 ;;		_dmx_set_address
  1933 ;;		_dmx_set_start
  1934 ;;		_pin_init
  1935 ;;		_timer_init
  1936 ;;		_uart_init
  1937 ;; This function is called by:
  1938 ;;		_main
  1939 ;; This function uses a non-reentrant model
  1940 ;;
  1941                           psect	text2,class=CODE,space=0,reloc=2,group=0
  1942                           	line	71
  1943                           global __ptext2
  1944                           __ptext2:
  1945  000314                     psect	text2
  1946                           	file	"dome_main.c"
  1947                           	line	71
  1948                           	global	__size_of_setup
  1949                           	__size_of_setup	equ	__end_of_setup-_setup
  1950  0000                     	
  1951                           _setup:
  1952  000314                     ;incstack = 0
  1953                           	opt	stack 26
  1954                           	line	72
  1955                           	
  1956                           l1217:
  1957  000314                     ;dome_main.c: 72: timer_init();
  1958                           	call	_timer_init	;wreg free
  1959  000314  EC5F  F001         	line	76
  1960                           	
  1961                           l1219:
  1962  000318                     ;dome_main.c: 76: pin_init();
  1963                           	call	_pin_init	;wreg free
  1964  000318  ECF3  F001         	line	77
  1965                           	
  1966                           l1221:
  1967  00031C                     ;dome_main.c: 77: uart_init();
  1968                           	call	_uart_init	;wreg free
  1969  00031C  ECB2  F001         	line	79
  1970                           	
  1971                           l1223:
  1972  000320                     ;dome_main.c: 79: dmx_init();
  1973                           	call	_dmx_init	;wreg free
  1974  000320  ECFE  F000         	line	80
  1975                           	
  1976                           l1225:
  1977  000324                     ;dome_main.c: 80: dmx_set_start(0x00);
  1978                           	movlw	(0)&0ffh
  1979  000324  0E00               	
  1980                           	call	_dmx_set_start
  1981  000326  ECFC  F001         	line	81
  1982                           	
  1983                           l1227:
  1984  00032A                     ;dome_main.c: 81: dmx_set_address(0x01);
  1985                           	movlw	high(01h)
  1986  00032A  0E00               	movwf	((c:dmx_set_address@base+1)),c
  1987  00032C  6E31               	movlw	low(01h)
  1988  00032E  0E01               	movwf	((c:dmx_set_address@base)),c
  1989  000330  6E30               	call	_dmx_set_address	;wreg free
  1990  000332  EC9F  F001         	line	83
  1991                           	
  1992                           l1229:
  1993  000336                     ;dome_main.c: 83: TXSTA1bits.TXEN = 1;
  1994                           	bsf	((c:4013)),c,5	;volatile
  1995  000336  8AAD               	goto	l255
  1996  000338  EF9E  F001         	line	85
  1997                           	
  1998                           l1231:
  1999  00033C                     	line	86
  2000                           ;dome_main.c: 85: return;
  2001                           	
  2002                           l255:
  2003  00033C                     	return	;funcret
  2004  00033C  0012               	opt stack 0
  2005                           GLOBAL	__end_of_setup
  2006                           	__end_of_setup:
  2007  00033E                     	signat	_setup,89
  2008                           	global	_uart_init
  2009                           
  2010 ;; *************** function _uart_init *****************
  2011 ;; Defined at:
  2012 ;;		line 15 in file "domeshow_lib.h"
  2013 ;; Parameters:    Size  Location     Type
  2014 ;;		None
  2015 ;; Auto vars:     Size  Location     Type
  2016 ;;		None
  2017 ;; Return value:  Size  Location     Type
  2018 ;;                  1    wreg      void 
  2019 ;; Registers used:
  2020 ;;		wreg, status,2
  2021 ;; Tracked objects:
  2022 ;;		On entry : 0/0
  2023 ;;		On exit  : 0/0
  2024 ;;		Unchanged: 0/0
  2025 ;; Data sizes:     COMRAM   BANK0   BANK1   BANK2   BANK3   BANK4   BANK5   BANK6   BANK7   BANK8   BANK9  BANK10  BANK1
       1  BANK12  BANK13  BANK14
  2026 ;;      Params:         0       0       0       0       0       0       0       0       0       0       0       0       
       0       0       0       0
  2027 ;;      Locals:         0       0       0       0       0       0       0       0       0       0       0       0       
       0       0       0       0
  2028 ;;      Temps:          0       0       0       0       0       0       0       0       0       0       0       0       
       0       0       0       0
  2029 ;;      Totals:         0       0       0       0       0       0       0       0       0       0       0       0       
       0       0       0       0
  2030 ;;Total ram usage:        0 bytes
  2031 ;; Hardware stack levels used:    1
  2032 ;; Hardware stack levels required when called:    3
  2033 ;; This function calls:
  2034 ;;		Nothing
  2035 ;; This function is called by:
  2036 ;;		_setup
  2037 ;; This function uses a non-reentrant model
  2038 ;;
  2039                           psect	text3,class=CODE,space=0,reloc=2,group=0
  2040                           	file	"domeshow_lib.h"
  2041                           	line	15
  2042                           global __ptext3
  2043                           __ptext3:
  2044  000364                     psect	text3
  2045                           	file	"domeshow_lib.h"
  2046                           	line	15
  2047                           	global	__size_of_uart_init
  2048                           	__size_of_uart_init	equ	__end_of_uart_init-_uart_init
  2049  0000                     	
  2050                           _uart_init:
  2051  000364                     ;incstack = 0
  2052                           	opt	stack 26
  2053                           	line	18
  2054                           	
  2055                           l951:
  2056  000364                     ;domeshow_lib.h: 18: TXSTA1bits.SYNC = 0;
  2057                           	bcf	((c:4013)),c,4	;volatile
  2058  000364  98AD               	line	19
  2059                           ;domeshow_lib.h: 19: RCSTA1bits.CREN = 1;
  2060                           	bsf	((c:4012)),c,4	;volatile
  2061  000366  88AC               	line	20
  2062                           ;domeshow_lib.h: 20: TXSTA1bits.TXEN = 0;
  2063                           	bcf	((c:4013)),c,5	;volatile
  2064  000368  9AAD               	line	21
  2065                           ;domeshow_lib.h: 21: RCSTA1bits.SPEN = 1;
  2066                           	bsf	((c:4012)),c,7	;volatile
  2067  00036A  8EAC               	line	22
  2068                           ;domeshow_lib.h: 22: RCSTA1bits.RX9 = 0;
  2069                           	bcf	((c:4012)),c,6	;volatile
  2070  00036C  9CAC               	line	23
  2071                           ;domeshow_lib.h: 23: TRISCbits.TRISC7 = 1;
  2072                           	bsf	((c:3988)),c,7	;volatile
  2073  00036E  8E94               	line	24
  2074                           ;domeshow_lib.h: 24: TRISCbits.TRISC6 = 0;
  2075                           	bcf	((c:3988)),c,6	;volatile
  2076  000370  9C94               	line	25
  2077                           ;domeshow_lib.h: 25: INTCONbits.GIE = 1;
  2078                           	bsf	((c:4082)),c,7	;volatile
  2079  000372  8EF2               	line	26
  2080                           ;domeshow_lib.h: 26: INTCONbits.PEIE = 1;
  2081                           	bsf	((c:4082)),c,6	;volatile
  2082  000374  8CF2               	line	27
  2083                           ;domeshow_lib.h: 27: PIE1bits.RC1IE = 1;
  2084                           	bsf	((c:3997)),c,5	;volatile
  2085  000376  8A9D               	line	28
  2086                           ;domeshow_lib.h: 28: BAUDCON1bits.BRG16 = 0;
  2087                           	bcf	((c:3966)),c,3	;volatile
  2088  000378  967E               	line	29
  2089                           ;domeshow_lib.h: 29: TXSTA1bits.BRGH = 0;
  2090                           	bcf	((c:4013)),c,2	;volatile
  2091  00037A  94AD               	line	30
  2092                           	
  2093                           l953:
  2094  00037C                     ;domeshow_lib.h: 30: SPBRG1 = 2;
  2095                           	movlw	low(02h)
  2096  00037C  0E02               	movwf	((c:4016)),c	;volatile
  2097  00037E  6EB0               	line	31
  2098                           	
  2099                           l221:
  2100  000380                     	return	;funcret
  2101  000380  0012               	opt stack 0
  2102                           GLOBAL	__end_of_uart_init
  2103                           	__end_of_uart_init:
  2104  000382                     	signat	_uart_init,89
  2105                           	global	_timer_init
  2106                           
  2107 ;; *************** function _timer_init *****************
  2108 ;; Defined at:
  2109 ;;		line 47 in file "domeshow_lib.h"
  2110 ;; Parameters:    Size  Location     Type
  2111 ;;		None
  2112 ;; Auto vars:     Size  Location     Type
  2113 ;;		None
  2114 ;; Return value:  Size  Location     Type
  2115 ;;                  1    wreg      void 
  2116 ;; Registers used:
  2117 ;;		wreg, status,2
  2118 ;; Tracked objects:
  2119 ;;		On entry : 0/0
  2120 ;;		On exit  : 0/0
  2121 ;;		Unchanged: 0/0
  2122 ;; Data sizes:     COMRAM   BANK0   BANK1   BANK2   BANK3   BANK4   BANK5   BANK6   BANK7   BANK8   BANK9  BANK10  BANK1
       1  BANK12  BANK13  BANK14
  2123 ;;      Params:         0       0       0       0       0       0       0       0       0       0       0       0       
       0       0       0       0
  2124 ;;      Locals:         0       0       0       0       0       0       0       0       0       0       0       0       
       0       0       0       0
  2125 ;;      Temps:          0       0       0       0       0       0       0       0       0       0       0       0       
       0       0       0       0
  2126 ;;      Totals:         0       0       0       0       0       0       0       0       0       0       0       0       
       0       0       0       0
  2127 ;;Total ram usage:        0 bytes
  2128 ;; Hardware stack levels used:    1
  2129 ;; Hardware stack levels required when called:    3
  2130 ;; This function calls:
  2131 ;;		Nothing
  2132 ;; This function is called by:
  2133 ;;		_setup
  2134 ;; This function uses a non-reentrant model
  2135 ;;
  2136                           psect	text4,class=CODE,space=0,reloc=2,group=0
  2137                           	line	47
  2138                           global __ptext4
  2139                           __ptext4:
  2140  0002BE                     psect	text4
  2141                           	file	"domeshow_lib.h"
  2142                           	line	47
  2143                           	global	__size_of_timer_init
  2144                           	__size_of_timer_init	equ	__end_of_timer_init-_timer_init
  2145  0000                     	
  2146                           _timer_init:
  2147  0002BE                     ;incstack = 0
  2148                           	opt	stack 26
  2149                           	line	50
  2150                           	
  2151                           l957:
  2152  0002BE                     ;domeshow_lib.h: 50: OSCCONbits.IRCF = 0b111;
  2153                           		
  2154                           	bsf	((c:4051)),c, 4+0	;volatile
  2155  0002BE  88D3               	bsf	((c:4051)),c, 4+1	;volatile
  2156  0002C0  8AD3               	bsf	((c:4051)),c, 4+2	;volatile
  2157  0002C2  8CD3               
  2158                           	line	51
  2159                           	
  2160                           l959:
  2161  0002C4                     ;domeshow_lib.h: 51: OSCCONbits.SCS = 0b00;
  2162                           	movlw	((0 & ((1<<2)-1))<<0)|not (((1<<2)-1)<<0)
  2163  0002C4  0EFC               	andwf	((c:4051)),c	;volatile
  2164  0002C6  16D3               	line	52
  2165                           	
  2166                           l961:
  2167  0002C8                     ;domeshow_lib.h: 52: OSCTUNEbits.PLLEN = 1;
  2168                           	bsf	((c:3995)),c,6	;volatile
  2169  0002C8  8C9B               	line	55
  2170                           ;domeshow_lib.h: 55: CCP4CONbits.CCP4M = 0b1100;
  2171                           	movlb	15	; () banked
  2172  0002CA  010F               	movf	((3858))&0ffh,w	;volatile
  2173  0002CC  5112               	andlw	not (((1<<4)-1)<<0)
  2174  0002CE  0BF0               	iorlw	(0Ch & ((1<<4)-1))<<0
  2175  0002D0  090C               	movwf	((3858))&0ffh	;volatile
  2176  0002D2  6F12               	line	56
  2177                           ;domeshow_lib.h: 56: CCP5CONbits.CCP5M = 0b1100;
  2178                           	movlb	15	; () banked
  2179  0002D4  010F               	movf	((3855))&0ffh,w	;volatile
  2180  0002D6  510F               	andlw	not (((1<<4)-1)<<0)
  2181  0002D8  0BF0               	iorlw	(0Ch & ((1<<4)-1))<<0
  2182  0002DA  090C               	movwf	((3855))&0ffh	;volatile
  2183  0002DC  6F0F               	line	57
  2184                           ;domeshow_lib.h: 57: CCP6CONbits.CCP6M = 0b1100;
  2185                           	movlb	15	; () banked
  2186  0002DE  010F               	movf	((3852))&0ffh,w	;volatile
  2187  0002E0  510C               	andlw	not (((1<<4)-1)<<0)
  2188  0002E2  0BF0               	iorlw	(0Ch & ((1<<4)-1))<<0
  2189  0002E4  090C               	movwf	((3852))&0ffh	;volatile
  2190  0002E6  6F0C               	line	58
  2191                           ;domeshow_lib.h: 58: CCP7CONbits.CCP7M = 0b1100;
  2192                           	movlb	15	; () banked
  2193  0002E8  010F               	movf	((3849))&0ffh,w	;volatile
  2194  0002EA  5109               	andlw	not (((1<<4)-1)<<0)
  2195  0002EC  0BF0               	iorlw	(0Ch & ((1<<4)-1))<<0
  2196  0002EE  090C               	movwf	((3849))&0ffh	;volatile
  2197  0002F0  6F09               	line	59
  2198                           ;domeshow_lib.h: 59: CCP8CONbits.CCP8M = 0b1100;
  2199                           	movlb	15	; () banked
  2200  0002F2  010F               	movf	((3846))&0ffh,w	;volatile
  2201  0002F4  5106               	andlw	not (((1<<4)-1)<<0)
  2202  0002F6  0BF0               	iorlw	(0Ch & ((1<<4)-1))<<0
  2203  0002F8  090C               	movwf	((3846))&0ffh	;volatile
  2204  0002FA  6F06               	line	60
  2205                           ;domeshow_lib.h: 60: CCP9CONbits.CCP9M = 0b1100;
  2206                           	movlb	15	; () banked
  2207  0002FC  010F               	movf	((3843))&0ffh,w	;volatile
  2208  0002FE  5103               	andlw	not (((1<<4)-1)<<0)
  2209  000300  0BF0               	iorlw	(0Ch & ((1<<4)-1))<<0
  2210  000302  090C               	movwf	((3843))&0ffh	;volatile
  2211  000304  6F03               	line	65
  2212                           ;domeshow_lib.h: 65: T2CON = 0b00000100;
  2213                           	movlw	low(04h)
  2214  000306  0E04               	movwf	((c:4042)),c	;volatile
  2215  000308  6ECA               	line	67
  2216                           ;domeshow_lib.h: 67: PR2 = 254;
  2217                           	movlw	low(0FEh)
  2218  00030A  0EFE               	movwf	((c:4043)),c	;volatile
  2219  00030C  6ECB               	line	68
  2220                           ;domeshow_lib.h: 68: CCPR1L = 25;
  2221                           	movlw	low(019h)
  2222  00030E  0E19               	movwf	((c:4027)),c	;volatile
  2223  000310  6EBB               	line	69
  2224                           	
  2225                           l227:; BSR set to: 15
  2226  000312                     
  2227                           	return	;funcret
  2228  000312  0012               	opt stack 0
  2229                           GLOBAL	__end_of_timer_init
  2230                           	__end_of_timer_init:
  2231  000314                     	signat	_timer_init,89
  2232                           	global	_pin_init
  2233                           
  2234 ;; *************** function _pin_init *****************
  2235 ;; Defined at:
  2236 ;;		line 33 in file "domeshow_lib.h"
  2237 ;; Parameters:    Size  Location     Type
  2238 ;;		None
  2239 ;; Auto vars:     Size  Location     Type
  2240 ;;		None
  2241 ;; Return value:  Size  Location     Type
  2242 ;;                  1    wreg      void 
  2243 ;; Registers used:
  2244 ;;		None
  2245 ;; Tracked objects:
  2246 ;;		On entry : 0/0
  2247 ;;		On exit  : 0/0
  2248 ;;		Unchanged: 0/0
  2249 ;; Data sizes:     COMRAM   BANK0   BANK1   BANK2   BANK3   BANK4   BANK5   BANK6   BANK7   BANK8   BANK9  BANK10  BANK1
       1  BANK12  BANK13  BANK14
  2250 ;;      Params:         0       0       0       0       0       0       0       0       0       0       0       0       
       0       0       0       0
  2251 ;;      Locals:         0       0       0       0       0       0       0       0       0       0       0       0       
       0       0       0       0
  2252 ;;      Temps:          0       0       0       0       0       0       0       0       0       0       0       0       
       0       0       0       0
  2253 ;;      Totals:         0       0       0       0       0       0       0       0       0       0       0       0       
       0       0       0       0
  2254 ;;Total ram usage:        0 bytes
  2255 ;; Hardware stack levels used:    1
  2256 ;; Hardware stack levels required when called:    3
  2257 ;; This function calls:
  2258 ;;		Nothing
  2259 ;; This function is called by:
  2260 ;;		_setup
  2261 ;; This function uses a non-reentrant model
  2262 ;;
  2263                           psect	text5,class=CODE,space=0,reloc=2,group=0
  2264                           	line	33
  2265                           global __ptext5
  2266                           __ptext5:
  2267  0003E6                     psect	text5
  2268                           	file	"domeshow_lib.h"
  2269                           	line	33
  2270                           	global	__size_of_pin_init
  2271                           	__size_of_pin_init	equ	__end_of_pin_init-_pin_init
  2272  0000                     	
  2273                           _pin_init:; BSR set to: 15
  2274  0003E6                     
  2275                           ;incstack = 0
  2276                           	opt	stack 26
  2277                           	line	35
  2278                           	
  2279                           l955:
  2280  0003E6                     ;domeshow_lib.h: 35: TRISCbits.TRISC1 = 0;
  2281                           	bcf	((c:3988)),c,1	;volatile
  2282  0003E6  9294               	line	37
  2283                           ;domeshow_lib.h: 37: TRISCbits.TRISC6 = 0;
  2284                           	bcf	((c:3988)),c,6	;volatile
  2285  0003E8  9C94               	line	38
  2286                           ;domeshow_lib.h: 38: TRISBbits.TRISB7 = 0;
  2287                           	bcf	((c:3987)),c,7	;volatile
  2288  0003EA  9E93               	line	39
  2289                           ;domeshow_lib.h: 39: TRISBbits.TRISB6 = 0;
  2290                           	bcf	((c:3987)),c,6	;volatile
  2291  0003EC  9C93               	line	40
  2292                           ;domeshow_lib.h: 40: TRISBbits.TRISB5 = 0;
  2293                           	bcf	((c:3987)),c,5	;volatile
  2294  0003EE  9A93               	line	41
  2295                           ;domeshow_lib.h: 41: TRISBbits.TRISB4 = 0;
  2296                           	bcf	((c:3987)),c,4	;volatile
  2297  0003F0  9893               	line	42
  2298                           ;domeshow_lib.h: 42: TRISCbits.TRISC3 = 0;
  2299                           	bcf	((c:3988)),c,3	;volatile
  2300  0003F2  9694               	line	44
  2301                           ;domeshow_lib.h: 44: RC3 = 0;
  2302                           	bcf	c:(31763/8),(31763)&7	;volatile
  2303  0003F4  9682               	line	45
  2304                           	
  2305                           l224:
  2306  0003F6                     	return	;funcret
  2307  0003F6  0012               	opt stack 0
  2308                           GLOBAL	__end_of_pin_init
  2309                           	__end_of_pin_init:
  2310  0003F8                     	signat	_pin_init,89
  2311                           	global	_dmx_set_start
  2312                           
  2313 ;; *************** function _dmx_set_start *****************
  2314 ;; Defined at:
  2315 ;;		line 304 in file "dmx.c"
  2316 ;; Parameters:    Size  Location     Type
  2317 ;;  start           1    wreg     unsigned char 
  2318 ;; Auto vars:     Size  Location     Type
  2319 ;;  start           1   17[COMRAM] unsigned char 
  2320 ;; Return value:  Size  Location     Type
  2321 ;;                  1    wreg      void 
  2322 ;; Registers used:
  2323 ;;		wreg
  2324 ;; Tracked objects:
  2325 ;;		On entry : 0/0
  2326 ;;		On exit  : 0/0
  2327 ;;		Unchanged: 0/0
  2328 ;; Data sizes:     COMRAM   BANK0   BANK1   BANK2   BANK3   BANK4   BANK5   BANK6   BANK7   BANK8   BANK9  BANK10  BANK1
       1  BANK12  BANK13  BANK14
  2329 ;;      Params:         0       0       0       0       0       0       0       0       0       0       0       0       
       0       0       0       0
  2330 ;;      Locals:         1       0       0       0       0       0       0       0       0       0       0       0       
       0       0       0       0
  2331 ;;      Temps:          0       0       0       0       0       0       0       0       0       0       0       0       
       0       0       0       0
  2332 ;;      Totals:         1       0       0       0       0       0       0       0       0       0       0       0       
       0       0       0       0
  2333 ;;Total ram usage:        1 bytes
  2334 ;; Hardware stack levels used:    1
  2335 ;; Hardware stack levels required when called:    3
  2336 ;; This function calls:
  2337 ;;		Nothing
  2338 ;; This function is called by:
  2339 ;;		_setup
  2340 ;; This function uses a non-reentrant model
  2341 ;;
  2342                           psect	text6,class=CODE,space=0,reloc=2,group=0
  2343                           	file	"dmx.c"
  2344                           	line	304
  2345                           global __ptext6
  2346                           __ptext6:
  2347  0003F8                     psect	text6
  2348                           	file	"dmx.c"
  2349                           	line	304
  2350                           	global	__size_of_dmx_set_start
  2351                           	__size_of_dmx_set_start	equ	__end_of_dmx_set_start-_dmx_set_start
  2352  0000                     	
  2353                           _dmx_set_start:
  2354  0003F8                     ;incstack = 0
  2355                           	opt	stack 26
  2356                           ;dmx_set_start@start stored from wreg
  2357                           	movwf	((c:dmx_set_start@start)),c
  2358  0003F8  6E30               	line	311
  2359                           	
  2360                           l939:
  2361  0003FA                     ;dmx.c: 311: DMX_RxStart = start;
  2362                           	movff	(c:dmx_set_start@start),(c:_DMX_RxStart)
  2363  0003FA  C030  F018         	line	313
  2364                           	
  2365                           l64:
  2366  0003FE                     	return	;funcret
  2367  0003FE  0012               	opt stack 0
  2368                           GLOBAL	__end_of_dmx_set_start
  2369                           	__end_of_dmx_set_start:
  2370  000400                     	signat	_dmx_set_start,4217
  2371                           	global	_dmx_set_address
  2372                           
  2373 ;; *************** function _dmx_set_address *****************
  2374 ;; Defined at:
  2375 ;;		line 846 in file "dmx.c"
  2376 ;; Parameters:    Size  Location     Type
  2377 ;;  base            2   17[COMRAM] unsigned int 
  2378 ;; Auto vars:     Size  Location     Type
  2379 ;;		None
  2380 ;; Return value:  Size  Location     Type
  2381 ;;                  1    wreg      void 
  2382 ;; Registers used:
  2383 ;;		wreg, status,2, status,0
  2384 ;; Tracked objects:
  2385 ;;		On entry : 0/0
  2386 ;;		On exit  : 0/0
  2387 ;;		Unchanged: 0/0
  2388 ;; Data sizes:     COMRAM   BANK0   BANK1   BANK2   BANK3   BANK4   BANK5   BANK6   BANK7   BANK8   BANK9  BANK10  BANK1
       1  BANK12  BANK13  BANK14
  2389 ;;      Params:         2       0       0       0       0       0       0       0       0       0       0       0       
       0       0       0       0
  2390 ;;      Locals:         0       0       0       0       0       0       0       0       0       0       0       0       
       0       0       0       0
  2391 ;;      Temps:          0       0       0       0       0       0       0       0       0       0       0       0       
       0       0       0       0
  2392 ;;      Totals:         2       0       0       0       0       0       0       0       0       0       0       0       
       0       0       0       0
  2393 ;;Total ram usage:        2 bytes
  2394 ;; Hardware stack levels used:    1
  2395 ;; Hardware stack levels required when called:    3
  2396 ;; This function calls:
  2397 ;;		Nothing
  2398 ;; This function is called by:
  2399 ;;		_setup
  2400 ;; This function uses a non-reentrant model
  2401 ;;
  2402                           psect	text7,class=CODE,space=0,reloc=2,group=0
  2403                           	line	846
  2404                           global __ptext7
  2405                           __ptext7:
  2406  00033E                     psect	text7
  2407                           	file	"dmx.c"
  2408                           	line	846
  2409                           	global	__size_of_dmx_set_address
  2410                           	__size_of_dmx_set_address	equ	__end_of_dmx_set_address-_dmx_set_address
  2411  0000                     	
  2412                           _dmx_set_address:
  2413  00033E                     ;incstack = 0
  2414                           	opt	stack 26
  2415                           	line	848
  2416                           	
  2417                           l1211:
  2418  00033E                     ;dmx.c: 848: if(base > 511) base=511;
  2419                           		movlw	2
  2420  00033E  0E02               	subwf	 ((c:dmx_set_address@base+1)),c,w
  2421  000340  5C31               	btfss	status,0
  2422  000342  A0D8               	goto	u321
  2423  000344  EFA6  F001         	goto	u320
  2424  000348  EFA8  F001         
  2425                           u321:
  2426  00034C                     	goto	l1215
  2427  00034C  EFAD  F001         u320:
  2428  000350                     	
  2429                           l1213:
  2430  000350                     	movlw	high(01FFh)
  2431  000350  0E01               	movwf	((c:dmx_set_address@base+1)),c
  2432  000352  6E31               	setf	((c:dmx_set_address@base)),c
  2433  000354  6830               	goto	l1215
  2434  000356  EFAD  F001         	
  2435                           l129:
  2436  00035A                     	line	849
  2437                           	
  2438                           l1215:
  2439  00035A                     ;dmx.c: 849: DMX_RxChannel=base;
  2440                           	movff	(c:dmx_set_address@base),(c:_DMX_RxChannel)
  2441  00035A  C030  F013         	movff	(c:dmx_set_address@base+1),(c:_DMX_RxChannel+1)
  2442  00035E  C031  F014         	line	850
  2443                           	
  2444                           l130:
  2445  000362                     	return	;funcret
  2446  000362  0012               	opt stack 0
  2447                           GLOBAL	__end_of_dmx_set_address
  2448                           	__end_of_dmx_set_address:
  2449  000364                     	signat	_dmx_set_address,4217
  2450                           	global	_dmx_init
  2451                           
  2452 ;; *************** function _dmx_init *****************
  2453 ;; Defined at:
  2454 ;;		line 187 in file "dmx.c"
  2455 ;; Parameters:    Size  Location     Type
  2456 ;;		None
  2457 ;; Auto vars:     Size  Location     Type
  2458 ;;  load            2   17[COMRAM] unsigned int 
  2459 ;; Return value:  Size  Location     Type
  2460 ;;                  1    wreg      void 
  2461 ;; Registers used:
  2462 ;;		wreg, fsr2l, fsr2h, status,2, status,0
  2463 ;; Tracked objects:
  2464 ;;		On entry : 0/0
  2465 ;;		On exit  : 0/0
  2466 ;;		Unchanged: 0/0
  2467 ;; Data sizes:     COMRAM   BANK0   BANK1   BANK2   BANK3   BANK4   BANK5   BANK6   BANK7   BANK8   BANK9  BANK10  BANK1
       1  BANK12  BANK13  BANK14
  2468 ;;      Params:         0       0       0       0       0       0       0       0       0       0       0       0       
       0       0       0       0
  2469 ;;      Locals:         2       0       0       0       0       0       0       0       0       0       0       0       
       0       0       0       0
  2470 ;;      Temps:          0       0       0       0       0       0       0       0       0       0       0       0       
       0       0       0       0
  2471 ;;      Totals:         2       0       0       0       0       0       0       0       0       0       0       0       
       0       0       0       0
  2472 ;;Total ram usage:        2 bytes
  2473 ;; Hardware stack levels used:    1
  2474 ;; Hardware stack levels required when called:    3
  2475 ;; This function calls:
  2476 ;;		Nothing
  2477 ;; This function is called by:
  2478 ;;		_setup
  2479 ;; This function uses a non-reentrant model
  2480 ;;
  2481                           psect	text8,class=CODE,space=0,reloc=2,group=0
  2482                           	line	187
  2483                           global __ptext8
  2484                           __ptext8:
  2485  0001FC                     psect	text8
  2486                           	file	"dmx.c"
  2487                           	line	187
  2488                           	global	__size_of_dmx_init
  2489                           	__size_of_dmx_init	equ	__end_of_dmx_init-_dmx_init
  2490  0000                     	
  2491                           _dmx_init:
  2492  0001FC                     ;incstack = 0
  2493                           	opt	stack 26
  2494                           	line	202
  2495                           	
  2496                           l895:
  2497  0001FC                     ;dmx.c: 189: uint16_t load;
  2498                           ;dmx.c: 202: SPBRG1 = 11;
  2499                           	movlw	low(0Bh)
  2500  0001FC  0E0B               	movwf	((c:4016)),c	;volatile
  2501  0001FE  6EB0               	line	203
  2502                           ;dmx.c: 203: SPBRGH1 = 0;
  2503                           	movlw	low(0)
  2504  000200  0E00               	movwf	((c:3967)),c	;volatile
  2505  000202  6E7F               	line	205
  2506                           ;dmx.c: 205: BAUDCON1 = 0b00000000 | (1<<3);
  2507                           	movlw	low(08h)
  2508  000204  0E08               	movwf	((c:3966)),c	;volatile
  2509  000206  6E7E               	line	206
  2510                           ;dmx.c: 206: RCSTA1 = 0b10000000 | (1 <<4);
  2511                           	movlw	low(090h)
  2512  000208  0E90               	movwf	((c:4012)),c	;volatile
  2513  00020A  6EAC               	line	207
  2514                           ;dmx.c: 207: TXSTA1 = 0b01000001 | (0 <<5) | (0 << 2 );
  2515                           	movlw	low(041h)
  2516  00020C  0E41               	movwf	((c:4013)),c	;volatile
  2517  00020E  6EAD               	line	212
  2518                           ;dmx.c: 212: for(load=0; load<6;load++)
  2519                           	movlw	high(0)
  2520  000210  0E00               	movwf	((c:dmx_init@load+1)),c
  2521  000212  6E31               	movlw	low(0)
  2522  000214  0E00               	movwf	((c:dmx_init@load)),c
  2523  000216  6E30               	
  2524                           l897:
  2525  000218                     		movf	((c:dmx_init@load+1)),c,w
  2526  000218  5031               	bnz	u10
  2527  00021A  E109               	movlw	6
  2528  00021C  0E06               	subwf	 ((c:dmx_init@load)),c,w
  2529  00021E  5C30               	btfss	status,0
  2530  000220  A0D8               	goto	u11
  2531  000222  EF15  F001         	goto	u10
  2532  000226  EF17  F001         
  2533                           u11:
  2534  00022A                     	goto	l901
  2535  00022A  EF1B  F001         u10:
  2536  00022E                     	goto	l907
  2537  00022E  EF32  F001         	
  2538                           l899:
  2539  000232                     	goto	l907
  2540  000232  EF32  F001         	line	213
  2541                           	
  2542                           l59:
  2543  000236                     	line	214
  2544                           	
  2545                           l901:
  2546  000236                     ;dmx.c: 213: {
  2547                           ;dmx.c: 214: DMX_RxData[load]=0;
  2548                           	movlw	low(_DMX_RxData)
  2549  000236  0E19               	addwf	((c:dmx_init@load)),c,w
  2550  000238  2430               	movwf	c:fsr2l
  2551  00023A  6ED9               	movlw	high(_DMX_RxData)
  2552  00023C  0E00               	addwfc	((c:dmx_init@load+1)),c,w
  2553  00023E  2031               	movwf	1+c:fsr2l
  2554  000240  6EDA               	movlw	low(0)
  2555  000242  0E00               	movwf	indf2
  2556  000244  6EDF               	line	212
  2557                           	
  2558                           l903:
  2559  000246                     	infsnz	((c:dmx_init@load)),c
  2560  000246  4A30               	incf	((c:dmx_init@load+1)),c
  2561  000248  2A31               	
  2562                           l905:
  2563  00024A                     		movf	((c:dmx_init@load+1)),c,w
  2564  00024A  5031               	bnz	u20
  2565  00024C  E109               	movlw	6
  2566  00024E  0E06               	subwf	 ((c:dmx_init@load)),c,w
  2567  000250  5C30               	btfss	status,0
  2568  000252  A0D8               	goto	u21
  2569  000254  EF2E  F001         	goto	u20
  2570  000258  EF30  F001         
  2571                           u21:
  2572  00025C                     	goto	l901
  2573  00025C  EF1B  F001         u20:
  2574  000260                     	goto	l907
  2575  000260  EF32  F001         	
  2576                           l60:
  2577  000264                     	line	217
  2578                           	
  2579                           l907:
  2580  000264                     ;dmx.c: 215: }
  2581                           ;dmx.c: 217: DMX_RxChannel=0;
  2582                           	movlw	high(0)
  2583  000264  0E00               	movwf	((c:_DMX_RxChannel+1)),c
  2584  000266  6E14               	movlw	low(0)
  2585  000268  0E00               	movwf	((c:_DMX_RxChannel)),c
  2586  00026A  6E13               	line	218
  2587                           ;dmx.c: 218: DMX_RxStart=0;
  2588                           	movlw	low(0)
  2589  00026C  0E00               	movwf	((c:_DMX_RxStart)),c
  2590  00026E  6E18               	line	219
  2591                           ;dmx.c: 219: DMX_RxAddrCount=0;
  2592                           	movlw	high(0)
  2593  000270  0E00               	movwf	((c:_DMX_RxAddrCount+1)),c	;volatile
  2594  000272  6E12               	movlw	low(0)
  2595  000274  0E00               	movwf	((c:_DMX_RxAddrCount)),c	;volatile
  2596  000276  6E11               	line	220
  2597                           ;dmx.c: 220: DMX_RxState=0;
  2598                           	movlw	low(0)
  2599  000278  0E00               	movwf	((c:_DMX_RxState)),c	;volatile
  2600  00027A  6E17               	line	221
  2601                           	
  2602                           l909:
  2603  00027C                     ;dmx.c: 221: DMX_RxDataPtr = &DMX_RxData[0];
  2604                           		movlw	low(_DMX_RxData)
  2605  00027C  0E19               	movwf	((c:_DMX_RxDataPtr)),c
  2606  00027E  6E0F               	movlw	high(_DMX_RxData)
  2607  000280  0E00               	movwf	((c:_DMX_RxDataPtr+1)),c
  2608  000282  6E10               
  2609                           	line	224
  2610                           	
  2611                           l911:
  2612  000284                     ;dmx.c: 224: DMX_RxChannel=0xFFFF;
  2613                           	setf	((c:_DMX_RxChannel)),c
  2614  000284  6813               	setf	((c:_DMX_RxChannel+1)),c
  2615  000286  6814               	line	225
  2616                           	
  2617                           l913:
  2618  000288                     ;dmx.c: 225: load=RCREG1;
  2619                           	movff	(c:4015),(c:dmx_init@load)	;volatile
  2620  000288  CFAF F030          	clrf	((c:dmx_init@load+1)),c
  2621  00028C  6A31               	line	226
  2622                           	
  2623                           l915:
  2624  00028E                     ;dmx.c: 226: load=RCREG1;
  2625                           	movff	(c:4015),(c:dmx_init@load)	;volatile
  2626  00028E  CFAF F030          	clrf	((c:dmx_init@load+1)),c
  2627  000292  6A31               	line	228
  2628                           	
  2629                           l917:
  2630  000294                     ;dmx.c: 228: RC1IE=1;
  2631                           	bsf	c:(31981/8),(31981)&7	;volatile
  2632  000294  8A9D               	line	265
  2633                           	
  2634                           l919:
  2635  000296                     ;dmx.c: 265: DMX_TimerState=0;
  2636                           	movlw	low(0)
  2637  000296  0E00               	movwf	((c:_DMX_TimerState)),c	;volatile
  2638  000298  6E16               	line	267
  2639                           	
  2640                           l921:
  2641  00029A                     ;dmx.c: 267: DMX_Timer.HR_Count=0;
  2642                           	movlw	low(0)
  2643  00029A  0E00               	movwf	(0+((c:_DMX_Timer)+05h)),c	;volatile
  2644  00029C  6E0C               	line	268
  2645                           	
  2646                           l923:
  2647  00029E                     ;dmx.c: 268: DMX_Timer.MIN_Count=0;
  2648                           	movlw	low(0)
  2649  00029E  0E00               	movwf	(0+((c:_DMX_Timer)+04h)),c	;volatile
  2650  0002A0  6E0B               	line	269
  2651                           	
  2652                           l925:
  2653  0002A2                     ;dmx.c: 269: DMX_Timer.SEC_Count=0;
  2654                           	movlw	low(0)
  2655  0002A2  0E00               	movwf	(0+((c:_DMX_Timer)+03h)),c	;volatile
  2656  0002A4  6E0A               	line	270
  2657                           	
  2658                           l927:
  2659  0002A6                     ;dmx.c: 270: DMX_Timer.flags=0;
  2660                           	movlw	low(0)
  2661  0002A6  0E00               	movwf	((c:_DMX_Timer)),c	;volatile
  2662  0002A8  6E07               	line	273
  2663                           	
  2664                           l929:
  2665  0002AA                     ;dmx.c: 273: TMR1=0xFc17;
  2666                           	movlw	high(0FC17h)
  2667  0002AA  0EFC               	movwf	((c:4046+1)),c	;volatile
  2668  0002AC  6ECF               	movlw	low(0FC17h)
  2669  0002AE  0E17               	movwf	((c:4046)),c	;volatile
  2670  0002B0  6ECE               	line	274
  2671                           	
  2672                           l931:
  2673  0002B2                     ;dmx.c: 274: T1CON=0b00110001;
  2674                           	movlw	low(031h)
  2675  0002B2  0E31               	movwf	((c:4045)),c	;volatile
  2676  0002B4  6ECD               	line	275
  2677                           	
  2678                           l933:
  2679  0002B6                     ;dmx.c: 275: TMR1IF=0;
  2680                           	bcf	c:(31984/8),(31984)&7	;volatile
  2681  0002B6  909E               	line	276
  2682                           	
  2683                           l935:
  2684  0002B8                     ;dmx.c: 276: TMR1IE=1;
  2685                           	bsf	c:(31976/8),(31976)&7	;volatile
  2686  0002B8  809D               	line	282
  2687                           	
  2688                           l937:
  2689  0002BA                     ;dmx.c: 282: PEIE=1;
  2690                           	bsf	c:(32662/8),(32662)&7	;volatile
  2691  0002BA  8CF2               	line	284
  2692                           	
  2693                           l61:
  2694  0002BC                     	return	;funcret
  2695  0002BC  0012               	opt stack 0
  2696                           GLOBAL	__end_of_dmx_init
  2697                           	__end_of_dmx_init:
  2698  0002BE                     	signat	_dmx_init,89
  2699                           	global	_RC1IFInterrupt
  2700                           
  2701 ;; *************** function _RC1IFInterrupt *****************
  2702 ;; Defined at:
  2703 ;;		line 97 in file "dome_main.c"
  2704 ;; Parameters:    Size  Location     Type
  2705 ;;		None
  2706 ;; Auto vars:     Size  Location     Type
  2707 ;;		None
  2708 ;; Return value:  Size  Location     Type
  2709 ;;                  1    wreg      void 
  2710 ;; Registers used:
  2711 ;;		wreg, fsr2l, fsr2h, status,2, status,0, cstack
  2712 ;; Tracked objects:
  2713 ;;		On entry : 0/0
  2714 ;;		On exit  : 0/0
  2715 ;;		Unchanged: 0/0
  2716 ;; Data sizes:     COMRAM   BANK0   BANK1   BANK2   BANK3   BANK4   BANK5   BANK6   BANK7   BANK8   BANK9  BANK10  BANK1
       1  BANK12  BANK13  BANK14
  2717 ;;      Params:         0       0       0       0       0       0       0       0       0       0       0       0       
       0       0       0       0
  2718 ;;      Locals:         0       0       0       0       0       0       0       0       0       0       0       0       
       0       0       0       0
  2719 ;;      Temps:         14       0       0       0       0       0       0       0       0       0       0       0       
       0       0       0       0
  2720 ;;      Totals:        14       0       0       0       0       0       0       0       0       0       0       0       
       0       0       0       0
  2721 ;;Total ram usage:       14 bytes
  2722 ;; Hardware stack levels used:    1
  2723 ;; Hardware stack levels required when called:    2
  2724 ;; This function calls:
  2725 ;;		_dmx_rx_interrupt
  2726 ;; This function is called by:
  2727 ;;		Interrupt level 2
  2728 ;; This function uses a non-reentrant model
  2729 ;;
  2730                           psect	intcode,class=CODE,space=0,reloc=2
  2731                           global __pintcode
  2732                           __pintcode:
  2733  000008                     psect	intcode
  2734                           	file	"dome_main.c"
  2735                           	line	97
  2736                           	global	__size_of_RC1IFInterrupt
  2737                           	__size_of_RC1IFInterrupt	equ	__end_of_RC1IFInterrupt-_RC1IFInterrupt
  2738  0000                     	
  2739                           _RC1IFInterrupt:
  2740  000008                     ;incstack = 0
  2741                           	opt	stack 26
  2742                           	bsf int$flags,1,c ;set compiler interrupt flag (level 2)
  2743  000008  8232               	movff	pclath+0,??_RC1IFInterrupt+0
  2744  00000A  CFFA F022          	movff	pclath+1,??_RC1IFInterrupt+1
  2745  00000E  CFFB F023          	movff	fsr0l+0,??_RC1IFInterrupt+2
  2746  000012  CFE9 F024          	movff	fsr0h+0,??_RC1IFInterrupt+3
  2747  000016  CFEA F025          	movff	fsr1l+0,??_RC1IFInterrupt+4
  2748  00001A  CFE1 F026          	movff	fsr1h+0,??_RC1IFInterrupt+5
  2749  00001E  CFE2 F027          	movff	fsr2l+0,??_RC1IFInterrupt+6
  2750  000022  CFD9 F028          	movff	fsr2h+0,??_RC1IFInterrupt+7
  2751  000026  CFDA F029          	movff	prodl+0,??_RC1IFInterrupt+8
  2752  00002A  CFF3 F02A          	movff	prodh+0,??_RC1IFInterrupt+9
  2753  00002E  CFF4 F02B          	movff	tblptrl+0,??_RC1IFInterrupt+10
  2754  000032  CFF6 F02C          	movff	tblptrh+0,??_RC1IFInterrupt+11
  2755  000036  CFF7 F02D          	movff	tblptru+0,??_RC1IFInterrupt+12
  2756  00003A  CFF8 F02E          	movff	tablat+0,??_RC1IFInterrupt+13
  2757  00003E  CFF5 F02F          	line	99
  2758                           	
  2759                           i2l1191:
  2760  000042                     ;dome_main.c: 99: dmx_rx_interrupt();
  2761                           	call	_dmx_rx_interrupt	;wreg free
  2762  000042  EC43  F000         	line	100
  2763                           	
  2764                           i2l264:
  2765  000046                     	movff	??_RC1IFInterrupt+13,tablat+0
  2766  000046  C02F  FFF5         	movff	??_RC1IFInterrupt+12,tblptru+0
  2767  00004A  C02E  FFF8         	movff	??_RC1IFInterrupt+11,tblptrh+0
  2768  00004E  C02D  FFF7         	movff	??_RC1IFInterrupt+10,tblptrl+0
  2769  000052  C02C  FFF6         	movff	??_RC1IFInterrupt+9,prodh+0
  2770  000056  C02B  FFF4         	movff	??_RC1IFInterrupt+8,prodl+0
  2771  00005A  C02A  FFF3         	movff	??_RC1IFInterrupt+7,fsr2h+0
  2772  00005E  C029  FFDA         	movff	??_RC1IFInterrupt+6,fsr2l+0
  2773  000062  C028  FFD9         	movff	??_RC1IFInterrupt+5,fsr1h+0
  2774  000066  C027  FFE2         	movff	??_RC1IFInterrupt+4,fsr1l+0
  2775  00006A  C026  FFE1         	movff	??_RC1IFInterrupt+3,fsr0h+0
  2776  00006E  C025  FFEA         	movff	??_RC1IFInterrupt+2,fsr0l+0
  2777  000072  C024  FFE9         	movff	??_RC1IFInterrupt+1,pclath+1
  2778  000076  C023  FFFB         	movff	??_RC1IFInterrupt+0,pclath+0
  2779  00007A  C022  FFFA         	bcf int$flags,1,c ;clear compiler interrupt flag (level 2)
  2780  00007E  9232               	retfie f
  2781  000080  0011               	opt stack 0
  2782                           GLOBAL	__end_of_RC1IFInterrupt
  2783                           	__end_of_RC1IFInterrupt:
  2784  000082                     	signat	_RC1IFInterrupt,89
  2785                           	global	_dmx_rx_interrupt
  2786                           
  2787 ;; *************** function _dmx_rx_interrupt *****************
  2788 ;; Defined at:
  2789 ;;		line 725 in file "dmx.c"
  2790 ;; Parameters:    Size  Location     Type
  2791 ;;		None
  2792 ;; Auto vars:     Size  Location     Type
  2793 ;;  RxDat           1    2[COMRAM] unsigned char 
  2794 ;; Return value:  Size  Location     Type
  2795 ;;                  1    wreg      void 
  2796 ;; Registers used:
  2797 ;;		wreg, fsr2l, fsr2h, status,2, status,0, cstack
  2798 ;; Tracked objects:
  2799 ;;		On entry : 0/0
  2800 ;;		On exit  : 0/0
  2801 ;;		Unchanged: 0/0
  2802 ;; Data sizes:     COMRAM   BANK0   BANK1   BANK2   BANK3   BANK4   BANK5   BANK6   BANK7   BANK8   BANK9  BANK10  BANK1
       1  BANK12  BANK13  BANK14
  2803 ;;      Params:         0       0       0       0       0       0       0       0       0       0       0       0       
       0       0       0       0
  2804 ;;      Locals:         1       0       0       0       0       0       0       0       0       0       0       0       
       0       0       0       0
  2805 ;;      Temps:          2       0       0       0       0       0       0       0       0       0       0       0       
       0       0       0       0
  2806 ;;      Totals:         3       0       0       0       0       0       0       0       0       0       0       0       
       0       0       0       0
  2807 ;;Total ram usage:        3 bytes
  2808 ;; Hardware stack levels used:    1
  2809 ;; Hardware stack levels required when called:    1
  2810 ;; This function calls:
  2811 ;;		_toggle
  2812 ;; This function is called by:
  2813 ;;		_RC1IFInterrupt
  2814 ;;		_dmx_interrupt
  2815 ;; This function uses a non-reentrant model
  2816 ;;
  2817                           psect	text10,class=CODE,space=0,reloc=2,group=0
  2818                           	file	"dmx.c"
  2819                           	line	725
  2820                           global __ptext10
  2821                           __ptext10:
  2822  000086                     psect	text10
  2823                           	file	"dmx.c"
  2824                           	line	725
  2825                           	global	__size_of_dmx_rx_interrupt
  2826                           	__size_of_dmx_rx_interrupt	equ	__end_of_dmx_rx_interrupt-_dmx_rx_interrupt
  2827  0000                     	
  2828                           _dmx_rx_interrupt:
  2829  000086                     ;incstack = 0
  2830                           	opt	stack 26
  2831                           	line	729
  2832                           	
  2833                           i2l975:
  2834  000086                     ;dmx.c: 727: uint8_t RxDat;
  2835                           ;dmx.c: 729: if(RC1IE & RC1IF)
  2836                           	movlw	1
  2837  000086  0E01               	btfss	c:(31981/8),(31981)&7	;volatile
  2838  000088  AA9D               	movlw	0
  2839  00008A  0E00               	btfss	c:(31989/8),(31989)&7	;volatile
  2840  00008C  AA9E               	movlw	0
  2841  00008E  0E00               
  2842                           	btfss	wreg,0
  2843  000090  A0E8               	goto	i2u5_41
  2844  000092  EF4D  F000         	goto	i2u5_40
  2845  000096  EF4F  F000         i2u5_41:
  2846  00009A                     	goto	i2l120
  2847  00009A  EFFD  F000         i2u5_40:
  2848  00009E                     	line	731
  2849                           	
  2850                           i2l977:
  2851  00009E                     ;dmx.c: 730: {
  2852                           ;dmx.c: 731: RC1IF=0;
  2853                           	bcf	c:(31989/8),(31989)&7	;volatile
  2854  00009E  9A9E               	line	734
  2855                           ;dmx.c: 734: if(RCSTA1bits.FERR)
  2856                           	btfss	((c:4012)),c,2	;volatile
  2857  0000A0  A4AC               	goto	i2u6_41
  2858  0000A2  EF55  F000         	goto	i2u6_40
  2859  0000A6  EF57  F000         i2u6_41:
  2860  0000AA                     	goto	i2l1029
  2861  0000AA  EFEC  F000         i2u6_40:
  2862  0000AE                     	line	736
  2863                           	
  2864                           i2l979:
  2865  0000AE                     ;dmx.c: 735: {
  2866                           ;dmx.c: 736: RxDat=RCREG1;
  2867                           	movff	(c:4015),(c:dmx_rx_interrupt@RxDat)	;volatile
  2868  0000AE  CFAF F021          	line	737
  2869                           ;dmx.c: 737: DMX_Flags.RxBreak=1;
  2870                           	bsf	((c:_DMX_Flags)),c,1	;volatile
  2871  0000B2  8215               	line	738
  2872                           	
  2873                           i2l981:
  2874  0000B4                     ;dmx.c: 738: if(DMX_RxState==RX_READ_DATA)
  2875                           		movlw	2
  2876  0000B4  0E02               	xorwf	((c:_DMX_RxState)),c,w	;volatile
  2877  0000B6  1817               	btfss	status,2
  2878  0000B8  A4D8               	goto	i2u7_41
  2879  0000BA  EF61  F000         	goto	i2u7_40
  2880  0000BE  EF63  F000         
  2881                           i2u7_41:
  2882  0000C2                     	goto	i2l109
  2883  0000C2  EF65  F000         i2u7_40:
  2884  0000C6                     	line	739
  2885                           	
  2886                           i2l983:
  2887  0000C6                     ;dmx.c: 739: TXREG1=0xAA;
  2888                           	movlw	low(0AAh)
  2889  0000C6  0EAA               	movwf	((c:4014)),c	;volatile
  2890  0000C8  6EAE               	
  2891                           i2l109:
  2892  0000CA                     	line	740
  2893                           ;dmx.c: 740: DMX_RxState=RX_WAIT_FOR_START;
  2894                           	movlw	low(01h)
  2895  0000CA  0E01               	movwf	((c:_DMX_RxState)),c	;volatile
  2896  0000CC  6E17               	line	741
  2897                           ;dmx.c: 741: DMX_RxTimer=0;
  2898                           	movlw	high(0)
  2899  0000CE  0E00               	movwf	((c:_DMX_RxTimer+1)),c	;volatile
  2900  0000D0  6E0E               	movlw	low(0)
  2901  0000D2  0E00               	movwf	((c:_DMX_RxTimer)),c	;volatile
  2902  0000D4  6E0D               	goto	i2l1029
  2903  0000D6  EFEC  F000         	line	747
  2904                           	
  2905                           i2l108:
  2906  0000DA                     	line	749
  2907                           ;dmx.c: 747: }
  2908                           ;dmx.c: 749: switch(DMX_RxState)
  2909                           	goto	i2l1029
  2910  0000DA  EFEC  F000         	line	751
  2911                           ;dmx.c: 750: {
  2912                           ;dmx.c: 751: case RX_WAIT_FOR_BREAK:
  2913                           	
  2914                           i2l111:
  2915  0000DE                     	line	752
  2916                           ;dmx.c: 752: RxDat=RCREG1;
  2917                           	movff	(c:4015),(c:dmx_rx_interrupt@RxDat)	;volatile
  2918  0000DE  CFAF F021          	line	753
  2919                           	
  2920                           i2l985:
  2921  0000E2                     ;dmx.c: 753: TXREG1=0xaa;
  2922                           	movlw	low(0AAh)
  2923  0000E2  0EAA               	movwf	((c:4014)),c	;volatile
  2924  0000E4  6EAE               	line	754
  2925                           ;dmx.c: 754: break;
  2926                           	goto	i2l120
  2927  0000E6  EFFD  F000         	line	756
  2928                           ;dmx.c: 756: case RX_WAIT_FOR_START:
  2929                           	
  2930                           i2l113:
  2931  0000EA                     	line	758
  2932                           ;dmx.c: 758: if(RC1IF)
  2933                           	btfss	c:(31989/8),(31989)&7	;volatile
  2934  0000EA  AA9E               	goto	i2u8_41
  2935  0000EC  EF7A  F000         	goto	i2u8_40
  2936  0000F0  EF7C  F000         i2u8_41:
  2937  0000F4                     	goto	i2l120
  2938  0000F4  EFFD  F000         i2u8_40:
  2939  0000F8                     	line	760
  2940                           	
  2941                           i2l987:
  2942  0000F8                     ;dmx.c: 759: {
  2943                           ;dmx.c: 760: RxDat=RCREG1;
  2944                           	movff	(c:4015),(c:dmx_rx_interrupt@RxDat)	;volatile
  2945  0000F8  CFAF F021          	line	761
  2946                           ;dmx.c: 761: TXREG1=RxDat;
  2947                           	movff	(c:dmx_rx_interrupt@RxDat),(c:4014)	;volatile
  2948  0000FC  C021  FFAE         	line	763
  2949                           	
  2950                           i2l989:
  2951  000100                     ;dmx.c: 763: if(RxDat==DMX_RxStart)
  2952                           	movf	((c:_DMX_RxStart)),c,w
  2953  000100  5018               xorwf	((c:dmx_rx_interrupt@RxDat)),c,w
  2954  000102  1821               	btfss	status,2
  2955  000104  A4D8               	goto	i2u9_41
  2956  000106  EF87  F000         	goto	i2u9_40
  2957  00010A  EF89  F000         
  2958                           i2u9_41:
  2959  00010E                     	goto	i2l999
  2960  00010E  EF96  F000         i2u9_40:
  2961  000112                     	line	767
  2962                           	
  2963                           i2l991:
  2964  000112                     ;dmx.c: 764: {
  2965                           ;dmx.c: 767: DMX_RxState = RX_READ_DATA;
  2966                           	movlw	low(02h)
  2967  000112  0E02               	movwf	((c:_DMX_RxState)),c	;volatile
  2968  000114  6E17               	line	768
  2969                           	
  2970                           i2l993:
  2971  000116                     ;dmx.c: 768: DMX_RxDataPtr = &DMX_RxData[0];
  2972                           		movlw	low(_DMX_RxData)
  2973  000116  0E19               	movwf	((c:_DMX_RxDataPtr)),c
  2974  000118  6E0F               	movlw	high(_DMX_RxData)
  2975  00011A  0E00               	movwf	((c:_DMX_RxDataPtr+1)),c
  2976  00011C  6E10               
  2977                           	line	769
  2978                           	
  2979                           i2l995:
  2980  00011E                     ;dmx.c: 769: DMX_RxAddrCount = 1;
  2981                           	movlw	high(01h)
  2982  00011E  0E00               	movwf	((c:_DMX_RxAddrCount+1)),c	;volatile
  2983  000120  6E12               	movlw	low(01h)
  2984  000122  0E01               	movwf	((c:_DMX_RxAddrCount)),c	;volatile
  2985  000124  6E11               	line	770
  2986                           	
  2987                           i2l997:
  2988  000126                     ;dmx.c: 770: DMX_Flags.RxStart = 1;
  2989                           	bsf	((c:_DMX_Flags)),c,2	;volatile
  2990  000126  8415               	line	771
  2991                           ;dmx.c: 771: }
  2992                           	goto	i2l120
  2993  000128  EFFD  F000         	line	772
  2994                           	
  2995                           i2l115:
  2996  00012C                     	line	774
  2997                           	
  2998                           i2l999:
  2999  00012C                     ;dmx.c: 772: else
  3000                           ;dmx.c: 773: {
  3001                           ;dmx.c: 774: DMX_RxState=RX_WAIT_FOR_BREAK;
  3002                           	movlw	low(0)
  3003  00012C  0E00               	movwf	((c:_DMX_RxState)),c	;volatile
  3004  00012E  6E17               	goto	i2l120
  3005  000130  EFFD  F000         	line	775
  3006                           	
  3007                           i2l116:
  3008  000134                     	goto	i2l120
  3009  000134  EFFD  F000         	line	776
  3010                           	
  3011                           i2l114:
  3012  000138                     	line	777
  3013                           ;dmx.c: 775: }
  3014                           ;dmx.c: 776: }
  3015                           ;dmx.c: 777: break;
  3016                           	goto	i2l120
  3017  000138  EFFD  F000         	line	779
  3018                           ;dmx.c: 779: case RX_READ_DATA:
  3019                           	
  3020                           i2l117:
  3021  00013C                     	line	780
  3022                           	
  3023                           i2l1001:
  3024  00013C                     ;dmx.c: 780: TXREG1=0xcc;
  3025                           	movlw	low(0CCh)
  3026  00013C  0ECC               	movwf	((c:4014)),c	;volatile
  3027  00013E  6EAE               	line	781
  3028                           	
  3029                           i2l1003:
  3030  000140                     ;dmx.c: 781: toggle();
  3031                           	call	_toggle	;wreg free
  3032  000140  ECC1  F001         	line	783
  3033                           	
  3034                           i2l1005:
  3035  000144                     ;dmx.c: 783: RxDat=RCREG1;
  3036                           	movff	(c:4015),(c:dmx_rx_interrupt@RxDat)	;volatile
  3037  000144  CFAF F021          	line	785
  3038                           	
  3039                           i2l1007:
  3040  000148                     ;dmx.c: 785: if(DMX_RxAddrCount >= DMX_RxChannel && DMX_RxChannel !=0 )
  3041                           		movf	((c:_DMX_RxChannel)),c,w
  3042  000148  5013               	subwf	((c:_DMX_RxAddrCount)),c,w	;volatile
  3043  00014A  5C11               	movf	((c:_DMX_RxChannel+1)),c,w
  3044  00014C  5014               	subwfb	((c:_DMX_RxAddrCount+1)),c,w	;volatile
  3045  00014E  5812               	btfss	status,0
  3046  000150  A0D8               	goto	i2u10_41
  3047  000152  EFAD  F000         	goto	i2u10_40
  3048  000156  EFAF  F000         
  3049                           i2u10_41:
  3050  00015A                     	goto	i2l1015
  3051  00015A  EFC2  F000         i2u10_40:
  3052  00015E                     	
  3053                           i2l1009:
  3054  00015E                     	movf	((c:_DMX_RxChannel)),c,w
  3055  00015E  5013               iorwf	((c:_DMX_RxChannel+1)),c,w
  3056  000160  1014               	btfsc	status,2
  3057  000162  B4D8               	goto	i2u11_41
  3058  000164  EFB6  F000         	goto	i2u11_40
  3059  000168  EFB8  F000         
  3060                           i2u11_41:
  3061  00016C                     	goto	i2l1015
  3062  00016C  EFC2  F000         i2u11_40:
  3063  000170                     	line	787
  3064                           	
  3065                           i2l1011:
  3066  000170                     ;dmx.c: 786: {
  3067                           ;dmx.c: 787: *DMX_RxDataPtr=RxDat;
  3068                           	movff	(c:_DMX_RxDataPtr),fsr2l
  3069  000170  C00F  FFD9         	movff	(c:_DMX_RxDataPtr+1),fsr2h
  3070  000174  C010  FFDA         	movff	(c:dmx_rx_interrupt@RxDat),indf2
  3071  000178  C021  FFDF         
  3072                           	line	788
  3073                           	
  3074                           i2l1013:
  3075  00017C                     ;dmx.c: 788: DMX_RxDataPtr++;
  3076                           	infsnz	((c:_DMX_RxDataPtr)),c
  3077  00017C  4A0F               	incf	((c:_DMX_RxDataPtr+1)),c
  3078  00017E  2A10               	goto	i2l1015
  3079  000180  EFC2  F000         	line	789
  3080                           	
  3081                           i2l118:
  3082  000184                     	line	790
  3083                           	
  3084                           i2l1015:
  3085  000184                     ;dmx.c: 789: }
  3086                           ;dmx.c: 790: DMX_RxAddrCount++;
  3087                           	infsnz	((c:_DMX_RxAddrCount)),c	;volatile
  3088  000184  4A11               	incf	((c:_DMX_RxAddrCount+1)),c	;volatile
  3089  000186  2A12               	line	793
  3090                           	
  3091                           i2l1017:
  3092  000188                     ;dmx.c: 793: if(DMX_RxAddrCount >= (DMX_RxChannel + 6) && DMX_RxChannel !=0 )
  3093                           	movlw	06h
  3094  000188  0E06               	addwf	((c:_DMX_RxChannel)),c,w
  3095  00018A  2413               	movwf	(??_dmx_rx_interrupt+0+0)&0ffh,c
  3096  00018C  6E1F               	movlw	0
  3097  00018E  0E00               	addwfc	((c:_DMX_RxChannel+1)),c,w
  3098  000190  2014               	movwf	(??_dmx_rx_interrupt+0+0+1)&0ffh,c
  3099  000192  6E20               		movf	(??_dmx_rx_interrupt+0+0),c,w
  3100  000194  501F               	subwf	((c:_DMX_RxAddrCount)),c,w	;volatile
  3101  000196  5C11               	movf	(??_dmx_rx_interrupt+0+1),c,w
  3102  000198  5020               	subwfb	((c:_DMX_RxAddrCount+1)),c,w	;volatile
  3103  00019A  5812               	btfss	status,0
  3104  00019C  A0D8               	goto	i2u12_41
  3105  00019E  EFD3  F000         	goto	i2u12_40
  3106  0001A2  EFD5  F000         
  3107                           i2u12_41:
  3108  0001A6                     	goto	i2l120
  3109  0001A6  EFFD  F000         i2u12_40:
  3110  0001AA                     	
  3111                           i2l1019:
  3112  0001AA                     	movf	((c:_DMX_RxChannel)),c,w
  3113  0001AA  5013               iorwf	((c:_DMX_RxChannel+1)),c,w
  3114  0001AC  1014               	btfsc	status,2
  3115  0001AE  B4D8               	goto	i2u13_41
  3116  0001B0  EFDC  F000         	goto	i2u13_40
  3117  0001B4  EFDE  F000         
  3118                           i2u13_41:
  3119  0001B8                     	goto	i2l120
  3120  0001B8  EFFD  F000         i2u13_40:
  3121  0001BC                     	line	795
  3122                           	
  3123                           i2l1021:
  3124  0001BC                     ;dmx.c: 794: {
  3125                           ;dmx.c: 795: DMX_Flags.RxNew=1;
  3126                           	bsf	((c:_DMX_Flags)),c,0	;volatile
  3127  0001BC  8015               	line	796
  3128                           	
  3129                           i2l1023:
  3130  0001BE                     ;dmx.c: 796: DMX_RxState=RX_WAIT_FOR_BREAK;
  3131                           	movlw	low(0)
  3132  0001BE  0E00               	movwf	((c:_DMX_RxState)),c	;volatile
  3133  0001C0  6E17               	line	797
  3134                           ;dmx.c: 797: DMX_RxTimer = 0;
  3135                           	movlw	high(0)
  3136  0001C2  0E00               	movwf	((c:_DMX_RxTimer+1)),c	;volatile
  3137  0001C4  6E0E               	movlw	low(0)
  3138  0001C6  0E00               	movwf	((c:_DMX_RxTimer)),c	;volatile
  3139  0001C8  6E0D               	line	798
  3140                           	
  3141                           i2l1025:
  3142  0001CA                     ;dmx.c: 798: DMX_Flags.RxTimeout=0;
  3143                           	bcf	((c:_DMX_Flags)),c,3	;volatile
  3144  0001CA  9615               	goto	i2l120
  3145  0001CC  EFFD  F000         	line	799
  3146                           	
  3147                           i2l119:
  3148  0001D0                     	line	800
  3149                           ;dmx.c: 799: }
  3150                           ;dmx.c: 800: break;
  3151                           	goto	i2l120
  3152  0001D0  EFFD  F000         	line	801
  3153                           	
  3154                           i2l1027:
  3155  0001D4                     ;dmx.c: 801: }
  3156                           	goto	i2l120
  3157  0001D4  EFFD  F000         	line	749
  3158                           	
  3159                           i2l110:
  3160  0001D8                     	
  3161                           i2l1029:
  3162  0001D8                     	movf	((c:_DMX_RxState)),c,w	;volatile
  3163  0001D8  5017               	; Switch size 1, requested type "space"
  3164                           ; Number of cases is 3, Range of values is 0 to 2
  3165                           ; switch strategies available:
  3166                           ; Name         Instructions Cycles
  3167                           ; simple_byte           10     6 (average)
  3168                           ;	Chosen strategy is simple_byte
  3169                           
  3170                           	xorlw	0^0	; case 0
  3171  0001DA  0A00               	skipnz
  3172  0001DC  B4D8               	goto	i2l111
  3173  0001DE  EF6F  F000         	xorlw	1^0	; case 1
  3174  0001E2  0A01               	skipnz
  3175  0001E4  B4D8               	goto	i2l113
  3176  0001E6  EF75  F000         	xorlw	2^1	; case 2
  3177  0001EA  0A03               	skipnz
  3178  0001EC  B4D8               	goto	i2l1001
  3179  0001EE  EF9E  F000         	goto	i2l120
  3180  0001F2  EFFD  F000         
  3181                           	line	801
  3182                           	
  3183                           i2l112:
  3184  0001F6                     	goto	i2l120
  3185  0001F6  EFFD  F000         	line	808
  3186                           	
  3187                           i2l107:
  3188  0001FA                     	line	809
  3189                           	
  3190                           i2l120:
  3191  0001FA                     	return	;funcret
  3192  0001FA  0012               	opt stack 0
  3193                           GLOBAL	__end_of_dmx_rx_interrupt
  3194                           	__end_of_dmx_rx_interrupt:
  3195  0001FC                     	signat	_dmx_rx_interrupt,89
  3196                           	global	_toggle
  3197                           
  3198 ;; *************** function _toggle *****************
  3199 ;; Defined at:
  3200 ;;		line 717 in file "dmx.c"
  3201 ;; Parameters:    Size  Location     Type
  3202 ;;		None
  3203 ;; Auto vars:     Size  Location     Type
  3204 ;;		None
  3205 ;; Return value:  Size  Location     Type
  3206 ;;                  1    wreg      void 
  3207 ;; Registers used:
  3208 ;;		None
  3209 ;; Tracked objects:
  3210 ;;		On entry : 0/0
  3211 ;;		On exit  : 0/0
  3212 ;;		Unchanged: 0/0
  3213 ;; Data sizes:     COMRAM   BANK0   BANK1   BANK2   BANK3   BANK4   BANK5   BANK6   BANK7   BANK8   BANK9  BANK10  BANK1
       1  BANK12  BANK13  BANK14
  3214 ;;      Params:         0       0       0       0       0       0       0       0       0       0       0       0       
       0       0       0       0
  3215 ;;      Locals:         0       0       0       0       0       0       0       0       0       0       0       0       
       0       0       0       0
  3216 ;;      Temps:          0       0       0       0       0       0       0       0       0       0       0       0       
       0       0       0       0
  3217 ;;      Totals:         0       0       0       0       0       0       0       0       0       0       0       0       
       0       0       0       0
  3218 ;;Total ram usage:        0 bytes
  3219 ;; Hardware stack levels used:    1
  3220 ;; This function calls:
  3221 ;;		Nothing
  3222 ;; This function is called by:
  3223 ;;		_dmx_rx_interrupt
  3224 ;; This function uses a non-reentrant model
  3225 ;;
  3226                           psect	text11,class=CODE,space=0,reloc=2,group=0
  3227                           	line	717
  3228                           global __ptext11
  3229                           __ptext11:
  3230  000382                     psect	text11
  3231                           	file	"dmx.c"
  3232                           	line	717
  3233                           	global	__size_of_toggle
  3234                           	__size_of_toggle	equ	__end_of_toggle-_toggle
  3235  0000                     	
  3236                           _toggle:
  3237  000382                     ;incstack = 0
  3238                           	opt	stack 26
  3239                           	line	719
  3240                           	
  3241                           i2l941:
  3242  000382                     ;dmx.c: 719: if(RC3)
  3243                           	btfss	c:(31763/8),(31763)&7	;volatile
  3244  000382  A682               	goto	i2u3_41
  3245  000384  EFC6  F001         	goto	i2u3_40
  3246  000388  EFC8  F001         i2u3_41:
  3247  00038C                     	goto	i2l102
  3248  00038C  EFCB  F001         i2u3_40:
  3249  000390                     	line	720
  3250                           	
  3251                           i2l943:
  3252  000390                     ;dmx.c: 720: RC3=0;
  3253                           	bcf	c:(31763/8),(31763)&7	;volatile
  3254  000390  9682               	goto	i2l104
  3255  000392  EFCE  F001         	line	721
  3256                           	
  3257                           i2l102:
  3258  000396                     	line	722
  3259                           ;dmx.c: 721: else
  3260                           ;dmx.c: 722: RC3=1;
  3261                           	bsf	c:(31763/8),(31763)&7	;volatile
  3262  000396  8682               	goto	i2l104
  3263  000398  EFCE  F001         	
  3264                           i2l103:
  3265  00039C                     	line	723
  3266                           	
  3267                           i2l104:
  3268  00039C                     	return	;funcret
  3269  00039C  0012               	opt stack 0
  3270                           GLOBAL	__end_of_toggle
  3271                           	__end_of_toggle:
  3272  00039E                     	signat	_toggle,89
  3273                           	GLOBAL	__activetblptr
  3274                           __activetblptr	EQU	3
  3275  0000                     	psect	intsave_regs,class=BIGRAM,space=1,noexec
  3276                           	PSECT	rparam,class=COMRAM,space=1,noexec
  3277                           	GLOBAL	__Lrparam
  3278                           	FNCONF	rparam,??,?
  3279                           	GLOBAL	___rparam_used
  3280                           	___rparam_used EQU 1
  3281  0000                     	GLOBAL	___param_bank
  3282                           	___param_bank EQU 0
  3283  0000                     GLOBAL	__Lparam, __Hparam
  3284                           GLOBAL	__Lrparam, __Hrparam
  3285                           __Lparam	EQU	__Lrparam
  3286  0000                     __Hparam	EQU	__Hrparam
  3287  0000                            psect   temp,common,ovrld,class=COMRAM,space=1
  3288                           	global	btemp
  3289                           btemp:
  3290  000032                     	ds	1
  3291  000032                     	global	int$flags
  3292                           	int$flags	set btemp
  3293  0000                     	end


Data Sizes:
    Strings     0
    Constant    0
    Data        0
    BSS         30
    Persistent  0
    Stack       0

Auto Spaces:
    Space          Size  Autos    Used
    COMRAM           94     19      49
    BANK0           160      0       0
    BANK1           256      0       0
    BANK2           256      0       0
    BANK3           256      0       0
    BANK4           256      0       0
    BANK5           256      0       0
    BANK6           256      0       0
    BANK7           256      0       0
    BANK8           256      0       0
    BANK9           256      0       0
    BANK10          256      0       0
    BANK11          256      0       0
    BANK12          256      0       0
    BANK13          256      0       0
    BANK14          176      0       0

Pointer List with Targets:

    DMX_RxDataPtr	PTR volatile unsigned char  size(2) Largest target is 6
		 -> NULL(NULL[0]), DMX_RxData(COMRAM[6]), 


Critical Paths under _main in COMRAM

    _setup->_dmx_init
    _setup->_dmx_set_address

Critical Paths under _RC1IFInterrupt in COMRAM

    _RC1IFInterrupt->_dmx_rx_interrupt

Critical Paths under _main in BANK0

    None.

Critical Paths under _RC1IFInterrupt in BANK0

    None.

Critical Paths under _main in BANK1

    None.

Critical Paths under _RC1IFInterrupt in BANK1

    None.

Critical Paths under _main in BANK2

    None.

Critical Paths under _RC1IFInterrupt in BANK2

    None.

Critical Paths under _main in BANK3

    None.

Critical Paths under _RC1IFInterrupt in BANK3

    None.

Critical Paths under _main in BANK4

    None.

Critical Paths under _RC1IFInterrupt in BANK4

    None.

Critical Paths under _main in BANK5

    None.

Critical Paths under _RC1IFInterrupt in BANK5

    None.

Critical Paths under _main in BANK6

    None.

Critical Paths under _RC1IFInterrupt in BANK6

    None.

Critical Paths under _main in BANK7

    None.

Critical Paths under _RC1IFInterrupt in BANK7

    None.

Critical Paths under _main in BANK8

    None.

Critical Paths under _RC1IFInterrupt in BANK8

    None.

Critical Paths under _main in BANK9

    None.

Critical Paths under _RC1IFInterrupt in BANK9

    None.

Critical Paths under _main in BANK10

    None.

Critical Paths under _RC1IFInterrupt in BANK10

    None.

Critical Paths under _main in BANK11

    None.

Critical Paths under _RC1IFInterrupt in BANK11

    None.

Critical Paths under _main in BANK12

    None.

Critical Paths under _RC1IFInterrupt in BANK12

    None.

Critical Paths under _main in BANK13

    None.

Critical Paths under _RC1IFInterrupt in BANK13

    None.

Critical Paths under _main in BANK14

    None.

Critical Paths under _RC1IFInterrupt in BANK14

    None.

Call Graph Tables:

 ---------------------------------------------------------------------------------
 (Depth) Function   	        Calls       Base Space   Used Autos Params    Refs
 ---------------------------------------------------------------------------------
 (0) _main                                                 0     0      0     169
                              _setup
                              _write
 ---------------------------------------------------------------------------------
 (1) _write                                                0     0      0       0
 ---------------------------------------------------------------------------------
 (1) _setup                                                0     0      0     169
                           _dmx_init
                    _dmx_set_address
                      _dmx_set_start
                           _pin_init
                         _timer_init
                          _uart_init
 ---------------------------------------------------------------------------------
 (2) _uart_init                                            0     0      0       0
 ---------------------------------------------------------------------------------
 (2) _timer_init                                           0     0      0       0
 ---------------------------------------------------------------------------------
 (2) _pin_init                                             0     0      0       0
 ---------------------------------------------------------------------------------
 (2) _dmx_set_start                                        1     1      0      15
                                             17 COMRAM     1     1      0
 ---------------------------------------------------------------------------------
 (2) _dmx_set_address                                      2     0      2     109
                                             17 COMRAM     2     0      2
 ---------------------------------------------------------------------------------
 (2) _dmx_init                                             2     2      0      45
                                             17 COMRAM     2     2      0
 ---------------------------------------------------------------------------------
 Estimated maximum stack depth 2
 ---------------------------------------------------------------------------------
 (Depth) Function   	        Calls       Base Space   Used Autos Params    Refs
 ---------------------------------------------------------------------------------
 (3) _RC1IFInterrupt                                      14    14      0      45
                                              3 COMRAM    14    14      0
                   _dmx_rx_interrupt
 ---------------------------------------------------------------------------------
 (4) _dmx_rx_interrupt                                     3     3      0      45
                                              0 COMRAM     3     3      0
                             _toggle
 ---------------------------------------------------------------------------------
 (5) _toggle                                               0     0      0       0
 ---------------------------------------------------------------------------------
 Estimated maximum stack depth 5
 ---------------------------------------------------------------------------------

 Call Graph Graphs:

 _main (ROOT)
   _setup
     _dmx_init
     _dmx_set_address
     _dmx_set_start
     _pin_init
     _timer_init
     _uart_init
   _write

 _RC1IFInterrupt (ROOT)
   _dmx_rx_interrupt
     _toggle

 Address spaces:
Name               Size   Autos  Total    Cost      Usage
BIGRAM             EAF      0       0      35        0.0%
BITBANK13          100      0       0      31        0.0%
BANK13             100      0       0      32        0.0%
BITBANK12          100      0       0      29        0.0%
BANK12             100      0       0      30        0.0%
BITBANK11          100      0       0      27        0.0%
BANK11             100      0       0      28        0.0%
BITBANK10          100      0       0      25        0.0%
BANK10             100      0       0      26        0.0%
BITBANK9           100      0       0      23        0.0%
BANK9              100      0       0      24        0.0%
BITBANK8           100      0       0      21        0.0%
BANK8              100      0       0      22        0.0%
BITBANK7           100      0       0      19        0.0%
BANK7              100      0       0      20        0.0%
BITBANK6           100      0       0      17        0.0%
BANK6              100      0       0      18        0.0%
BITBANK5           100      0       0      15        0.0%
BANK5              100      0       0      16        0.0%
BITBANK4           100      0       0      13        0.0%
BANK4              100      0       0      14        0.0%
BITBANK3           100      0       0      11        0.0%
BANK3              100      0       0      12        0.0%
BITBANK2           100      0       0       9        0.0%
BANK2              100      0       0      10        0.0%
BITBANK1           100      0       0       7        0.0%
BANK1              100      0       0       8        0.0%
BITBANK14           B0      0       0      33        0.0%
BANK14              B0      0       0      34        0.0%
BITBANK0            A0      0       0       4        0.0%
BANK0               A0      0       0       5        0.0%
BITCOMRAM           5E      0       0       0        0.0%
COMRAM              5E     13      31       1       52.1%
BITSFR_2             0      0       0     200        0.0%
SFR_2                0      0       0     200        0.0%
BITSFR_1             0      0       0     200        0.0%
SFR_1                0      0       0     200        0.0%
BITSFR               0      0       0     200        0.0%
SFR                  0      0       0     200        0.0%
STACK                0      0       0       2        0.0%
NULL                 0      0       0       0        0.0%
ABS                  0      0      31       6        0.0%
DATA                 0      0      31       3        0.0%
CODE                 0      0       0       0        0.0%


Microchip Technology PIC18 Macro Assembler V1.41 build -162212810 
Symbol Table                                                                                   Fri Apr  7 23:08:22 2017

                       l60 0264                         l61 02BC                         l64 03FE  
                       l59 0236                         u10 022E                         u11 022A  
                       u20 0260                         u21 025C           ??_RC1IFInterrupt 0022  
             __CFG_CP0$OFF 000000                        l130 0362                        l221 0380  
                      l224 03F6                        l129 035A                        l227 0312  
                      l255 033C                        l280 03CC                        l281 03CC  
                      l275 03B6                        l278 03C0                        l279 03C8  
                      l901 0236                        l911 0284                        l903 0246  
                      l921 029A                        l913 0288                        l905 024A  
                      l931 02B2                        l923 029E                        l915 028E  
                      l907 0264                        l933 02B6                        l925 02A2  
                      l917 0294                        l909 027C                        l935 02B8  
                      l927 02A6                        l919 0296                        l951 0364  
                      l937 02BA                        l929 02AA                        l961 02C8  
                      l953 037C                        l939 03FA                        l955 03E6  
                      l957 02BE                        l895 01FC                        l959 02C4  
                      l897 0218                        l899 0232                        _RC3 007C13  
                      u320 0350                        u321 034C                        _PR2 000FCB  
                      wreg 000FE8                 _TXSTA1bits 000FAD               __CFG_IESO$ON 000000  
                     l1211 033E                       l1213 0350                       l1221 031C  
                     l1215 035A                       l1231 033C                       l1223 0320  
                     l1225 0324                       l1217 0314                       l1233 03B8  
                     l1227 032A                       l1219 0318                       l1235 03C0  
                     l1229 0336                       l1069 039E         __CFG_WPFP$PAGE_127 000000  
                     _PEIE 007F96                       _TMR1 000FCE              __CFG_FCMEN$ON 000000  
                     _main 03B8                       fsr0h 000FEA                       fsr1h 000FE2  
                     fsr2h 000FDA                       fsr0l 000FE9                       indf2 000FDF  
                     fsr1l 000FE1                       fsr2l 000FD9                       btemp 0032  
                     prodh 000FF4                       prodl 000FF3                       start 0082  
             ___param_bank 000000              __CFG_PLLDIV$2 000000               _BAUDCON1bits 000F7E  
                    ?_main 001F                      _T1CON 000FCD                      _T2CON 000FCA  
                    _RC1IE 007CED                      _RC1IF 007CF5                      i2l102 0396  
                    i2l110 01D8                      i2l103 039C                      i2l111 00DE  
                    i2l104 039C                      i2l112 01F6                      i2l120 01FA  
                    i2l113 00EA                      i2l114 0138                      i2l107 01FA  
                    i2l115 012C                      i2l116 0134                      i2l108 00DA  
                    i2l117 013C                      i2l109 00CA                      i2l118 0184  
                    i2l119 01D0              __CFG_WDTEN$ON 000000                      i2l264 0046  
                    i2l941 0382                      i2l943 0390                      i2l981 00B4  
                    i2l991 0112                      i2l983 00C6                      i2l975 0086  
                    i2l993 0116                      i2l985 00E2                      i2l977 009E  
                    i2l995 011E                      i2l987 00F8                      i2l979 00AE  
                    i2l997 0126                      i2l989 0100                      i2l999 012C  
            _dmx_set_start 03F8                      _TXREG 000FAE          ??_dmx_set_address 0032  
           __CFG_CLKOEC$ON 000000                      _setup 0314                      _write 039E  
                    pclath 000FFA                      tablat 000FF5                      status 000FD8  
  __CFG_DSWDTOSC$INTOSCREF 000000            __initialization 03D0   __end_of_dmx_rx_interrupt 01FC  
             __end_of_main 03D0              _DMX_RxDataPtr 000F              _DMX_RxChannel 0013  
                   ??_main 0032              __activetblptr 000003             ?_dmx_set_start 001F  
                   _CCPR1L 000FBB                     _CCPR4L 000F13                     _CCPR5L 000F10  
                   _CCPR6L 000F0D                     _CCPR7L 000F0A                     _CCPR8L 000F07  
                   _CCPR9L 000F04                     ?_setup 001F                     ?_write 001F  
                   i2l1001 013C                     i2l1011 0170                     i2l1003 0140  
                   i2l1021 01BC                     i2l1013 017C                     i2l1005 0144  
                   i2l1023 01BE                     i2l1015 0184                     i2l1007 0148  
                   i2l1025 01CA                     i2l1017 0188                     i2l1009 015E  
                   i2l1027 01D4                     i2l1019 01AA                     i2l1029 01D8  
                   i2l1191 0042                     _RCREG1 000FAF                     _RCSTA1 000FAC  
                   _SPBRG1 000FB0                     _TMR1IE 007CE8                     _TMR1IF 007CF0  
                   i2u3_40 0390                     i2u3_41 038C                     i2u5_40 009E  
                   i2u5_41 009A                     i2u6_40 00AE                     i2u6_41 00AA  
                   i2u7_40 00C6                     i2u7_41 00C2                     i2u8_40 00F8  
                   i2u8_41 00F4                     i2u9_40 0112                     i2u9_41 010E  
           __CFG_WPCFG$OFF 000000                     _TXREG1 000FAE                     _TXSTA1 000FAD  
             dmx_init@load 0030             __CFG_WPDIS$OFF 000000           __end_of_dmx_init 02BE  
           __CFG_STVREN$ON 000000                     clear_0 03D6                     _toggle 0382  
         __end_of_pin_init 03F8                     tblptrh 000FF7                     tblptrl 000FF6  
                   tblptru 000FF8            __CFG_DSBOREN$ON 000000                 __accesstop 0060  
  __end_of__initialization 03DC              ___rparam_used 000001            __CFG_IOL1WAY$ON 000000  
     __CFG_WPEND$PAGE_WPFP 000000             __pcstackCOMRAM 001F            __CFG_DSWDTEN$ON 000000  
            __end_of_setup 033E              __end_of_write 03B8            __CFG_DSWDTPS$G2 000000  
          ??_dmx_set_start 0030                    ??_setup 0032                    ??_write 0030  
        __CFG_PLLSEL$PLL96 000000             _DMX_TimerState 0016            _dmx_set_address 033E  
                  ?_toggle 001F         __size_of_uart_init 001E                    i2u10_40 015E  
                  i2u10_41 015A                    i2u11_40 0170                    i2u11_41 016C  
                  i2u12_40 01AA                    i2u12_41 01A6                    i2u13_40 01BC  
                  i2u13_41 01B8                    _SPBRGH1 000F7F                  ?_dmx_init 001F  
                ?_pin_init 001F                    __Hparam 0000                    __Lparam 0000  
        ?_dmx_rx_interrupt 001F         ??_dmx_rx_interrupt 001F                    __pcinit 03D0  
                  __ramtop 0F00                    __ptext0 03B8                    __ptext1 039E  
                  __ptext2 0314                    __ptext3 0364                    __ptext4 02BE  
                  __ptext5 03E6                    __ptext6 03F8                    __ptext7 033E  
                  __ptext8 01FC            __size_of_toggle 001C    __size_of_RC1IFInterrupt 007A  
     end_of_initialization 03DC                  _DMX_Flags 0015                 ??_dmx_init 0030  
                _DMX_Timer 0007          __end_of_uart_init 0382                 ??_pin_init 0030  
  __end_of_dmx_set_address 0364                    postinc0 000FEE                 _timer_init 02BE  
                _TRISBbits 000F93                  _TRISCbits 000F94        dmx_set_address@base 0030  
        __CFG_SOSCSEL$HIGH 000000                _CCP4CONbits 000F12                _CCP5CONbits 000F0F  
              _CCP6CONbits 000F0C                _CCP7CONbits 000F09        __CFG_MSSP7B_EN$MSK7 000000  
              _CCP8CONbits 000F06                _CCP9CONbits 000F03              _channelValues 0001  
           __end_of_toggle 039E        start_initialization 03D0            _DMX_RxAddrCount 0011  
         ?_dmx_set_address 0030          __CFG_ADCSEL$BIT10 000000                ?_timer_init 001F  
                 ??_toggle 001F      __end_of_dmx_set_start 0400                __pbssCOMRAM 0001  
           _RC1IFInterrupt 0008          __size_of_dmx_init 00C2                  __pintcode 0008  
        __size_of_pin_init 0012         dmx_set_start@start 0030                   _BAUDCON1 000F7E  
   __end_of_RC1IFInterrupt 0082       __CFG_RTCOSC$T1OSCREF 000000  __size_of_dmx_rx_interrupt 0176  
           __size_of_setup 002A             __size_of_write 001A        __CFG_OSC$INTOSCPLLO 000000  
      __size_of_timer_init 0056                   _PIE1bits 000F9D           __CFG_WDTPS$32768 000000  
                _uart_init 0364            ?_RC1IFInterrupt 001F          __CFG_CFGPLLEN$OFF 000000  
    dmx_rx_interrupt@RxDat 0021                _DMX_RxTimer 000D                _DMX_RxState 0017  
              _DMX_RxStart 0018                   __Hrparam 0000                   __Lrparam 0000  
               ?_uart_init 001F                   __ptext10 0086                   __ptext11 0382  
                 _dmx_init 01FC              __size_of_main 0018                   _pin_init 03E6  
                 int$flags 0032               ??_timer_init 0030                 _DMX_RxData 0019  
              _OSCTUNEbits 000F9B                 _INTCONbits 000FF2           _dmx_rx_interrupt 0086  
                 intlevel2 0000                 _RCSTA1bits 000FAC         __end_of_timer_init 0314  
               _OSCCONbits 000FD3                ??_uart_init 0030   __size_of_dmx_set_address 0026  
   __size_of_dmx_set_start 0008  
